Archive member included to satisfy reference by file (symbol)

c:/Program Files/ARMtoolchain/bin/../lib/gcc/arm-none-eabi/14.2.1/thumb/v7e-m+fp/hard\libc_nano.a(libc_a-exit.o)
                              c:/Program Files/ARMtoolchain/bin/../lib/gcc/arm-none-eabi/14.2.1/thumb/v7e-m+fp/hard/crt0.o (exit)
c:/Program Files/ARMtoolchain/bin/../lib/gcc/arm-none-eabi/14.2.1/thumb/v7e-m+fp/hard\libc_nano.a(libc_a-findfp.o)
                              build/tasks.o (__sf)
c:/Program Files/ARMtoolchain/bin/../lib/gcc/arm-none-eabi/14.2.1/thumb/v7e-m+fp/hard\libc_nano.a(libc_a-fwalk.o)
                              c:/Program Files/ARMtoolchain/bin/../lib/gcc/arm-none-eabi/14.2.1/thumb/v7e-m+fp/hard\libc_nano.a(libc_a-findfp.o) (_fwalk_sglue)
c:/Program Files/ARMtoolchain/bin/../lib/gcc/arm-none-eabi/14.2.1/thumb/v7e-m+fp/hard\libc_nano.a(libc_a-printf.o)
                              build/main.o (printf)
c:/Program Files/ARMtoolchain/bin/../lib/gcc/arm-none-eabi/14.2.1/thumb/v7e-m+fp/hard\libc_nano.a(libc_a-puts.o)
                              build/main.o (puts)
c:/Program Files/ARMtoolchain/bin/../lib/gcc/arm-none-eabi/14.2.1/thumb/v7e-m+fp/hard\libc_nano.a(libc_a-stdio.o)
                              c:/Program Files/ARMtoolchain/bin/../lib/gcc/arm-none-eabi/14.2.1/thumb/v7e-m+fp/hard\libc_nano.a(libc_a-findfp.o) (__sread)
c:/Program Files/ARMtoolchain/bin/../lib/gcc/arm-none-eabi/14.2.1/thumb/v7e-m+fp/hard\libc_nano.a(libc_a-wbuf.o)
                              c:/Program Files/ARMtoolchain/bin/../lib/gcc/arm-none-eabi/14.2.1/thumb/v7e-m+fp/hard\libc_nano.a(libc_a-puts.o) (__swbuf_r)
c:/Program Files/ARMtoolchain/bin/../lib/gcc/arm-none-eabi/14.2.1/thumb/v7e-m+fp/hard\libc_nano.a(libc_a-wsetup.o)
                              c:/Program Files/ARMtoolchain/bin/../lib/gcc/arm-none-eabi/14.2.1/thumb/v7e-m+fp/hard\libc_nano.a(libc_a-puts.o) (__swsetup_r)
c:/Program Files/ARMtoolchain/bin/../lib/gcc/arm-none-eabi/14.2.1/thumb/v7e-m+fp/hard\libc_nano.a(libc_a-memset.o)
                              c:/Program Files/ARMtoolchain/bin/../lib/gcc/arm-none-eabi/14.2.1/thumb/v7e-m+fp/hard/crt0.o (memset)
c:/Program Files/ARMtoolchain/bin/../lib/gcc/arm-none-eabi/14.2.1/thumb/v7e-m+fp/hard\libc_nano.a(libc_a-closer.o)
                              c:/Program Files/ARMtoolchain/bin/../lib/gcc/arm-none-eabi/14.2.1/thumb/v7e-m+fp/hard\libc_nano.a(libc_a-stdio.o) (_close_r)
c:/Program Files/ARMtoolchain/bin/../lib/gcc/arm-none-eabi/14.2.1/thumb/v7e-m+fp/hard\libc_nano.a(libc_a-reent.o)
                              build/tasks.o (_reclaim_reent)
c:/Program Files/ARMtoolchain/bin/../lib/gcc/arm-none-eabi/14.2.1/thumb/v7e-m+fp/hard\libc_nano.a(libc_a-impure.o)
                              build/tasks.o (_impure_ptr)
c:/Program Files/ARMtoolchain/bin/../lib/gcc/arm-none-eabi/14.2.1/thumb/v7e-m+fp/hard\libc_nano.a(libc_a-lseekr.o)
                              c:/Program Files/ARMtoolchain/bin/../lib/gcc/arm-none-eabi/14.2.1/thumb/v7e-m+fp/hard\libc_nano.a(libc_a-stdio.o) (_lseek_r)
c:/Program Files/ARMtoolchain/bin/../lib/gcc/arm-none-eabi/14.2.1/thumb/v7e-m+fp/hard\libc_nano.a(libc_a-readr.o)
                              c:/Program Files/ARMtoolchain/bin/../lib/gcc/arm-none-eabi/14.2.1/thumb/v7e-m+fp/hard\libc_nano.a(libc_a-stdio.o) (_read_r)
c:/Program Files/ARMtoolchain/bin/../lib/gcc/arm-none-eabi/14.2.1/thumb/v7e-m+fp/hard\libc_nano.a(libc_a-writer.o)
                              c:/Program Files/ARMtoolchain/bin/../lib/gcc/arm-none-eabi/14.2.1/thumb/v7e-m+fp/hard\libc_nano.a(libc_a-stdio.o) (_write_r)
c:/Program Files/ARMtoolchain/bin/../lib/gcc/arm-none-eabi/14.2.1/thumb/v7e-m+fp/hard\libc_nano.a(libc_a-init.o)
                              c:/Program Files/ARMtoolchain/bin/../lib/gcc/arm-none-eabi/14.2.1/thumb/v7e-m+fp/hard/crt0.o (__libc_init_array)
c:/Program Files/ARMtoolchain/bin/../lib/gcc/arm-none-eabi/14.2.1/thumb/v7e-m+fp/hard\libc_nano.a(libc_a-lock.o)
                              c:/Program Files/ARMtoolchain/bin/../lib/gcc/arm-none-eabi/14.2.1/thumb/v7e-m+fp/hard\libc_nano.a(libc_a-findfp.o) (__retarget_lock_init_recursive)
c:/Program Files/ARMtoolchain/bin/../lib/gcc/arm-none-eabi/14.2.1/thumb/v7e-m+fp/hard\libc_nano.a(libc_a-memcpy-stub.o)
                              build/queue.o (memcpy)
c:/Program Files/ARMtoolchain/bin/../lib/gcc/arm-none-eabi/14.2.1/thumb/v7e-m+fp/hard\libc_nano.a(libc_a-freer.o)
                              c:/Program Files/ARMtoolchain/bin/../lib/gcc/arm-none-eabi/14.2.1/thumb/v7e-m+fp/hard\libc_nano.a(libc_a-wsetup.o) (_free_r)
c:/Program Files/ARMtoolchain/bin/../lib/gcc/arm-none-eabi/14.2.1/thumb/v7e-m+fp/hard\libc_nano.a(libc_a-mallocr.o)
                              c:/Program Files/ARMtoolchain/bin/../lib/gcc/arm-none-eabi/14.2.1/thumb/v7e-m+fp/hard\libc_nano.a(libc_a-findfp.o) (_malloc_r)
c:/Program Files/ARMtoolchain/bin/../lib/gcc/arm-none-eabi/14.2.1/thumb/v7e-m+fp/hard\libc_nano.a(libc_a-mlock.o)
                              c:/Program Files/ARMtoolchain/bin/../lib/gcc/arm-none-eabi/14.2.1/thumb/v7e-m+fp/hard\libc_nano.a(libc_a-freer.o) (__malloc_lock)
c:/Program Files/ARMtoolchain/bin/../lib/gcc/arm-none-eabi/14.2.1/thumb/v7e-m+fp/hard\libc_nano.a(libc_a-nano-vfprintf.o)
                              c:/Program Files/ARMtoolchain/bin/../lib/gcc/arm-none-eabi/14.2.1/thumb/v7e-m+fp/hard\libc_nano.a(libc_a-printf.o) (_vfprintf_r)
c:/Program Files/ARMtoolchain/bin/../lib/gcc/arm-none-eabi/14.2.1/thumb/v7e-m+fp/hard\libc_nano.a(libc_a-nano-vfprintf_i.o)
                              c:/Program Files/ARMtoolchain/bin/../lib/gcc/arm-none-eabi/14.2.1/thumb/v7e-m+fp/hard\libc_nano.a(libc_a-nano-vfprintf.o) (_printf_i)
c:/Program Files/ARMtoolchain/bin/../lib/gcc/arm-none-eabi/14.2.1/thumb/v7e-m+fp/hard\libc_nano.a(libc_a-fflush.o)
                              c:/Program Files/ARMtoolchain/bin/../lib/gcc/arm-none-eabi/14.2.1/thumb/v7e-m+fp/hard\libc_nano.a(libc_a-findfp.o) (_fflush_r)
c:/Program Files/ARMtoolchain/bin/../lib/gcc/arm-none-eabi/14.2.1/thumb/v7e-m+fp/hard\libc_nano.a(libc_a-fvwrite.o)
                              c:/Program Files/ARMtoolchain/bin/../lib/gcc/arm-none-eabi/14.2.1/thumb/v7e-m+fp/hard\libc_nano.a(libc_a-nano-vfprintf.o) (__sfvwrite_r)
c:/Program Files/ARMtoolchain/bin/../lib/gcc/arm-none-eabi/14.2.1/thumb/v7e-m+fp/hard\libc_nano.a(libc_a-makebuf.o)
                              c:/Program Files/ARMtoolchain/bin/../lib/gcc/arm-none-eabi/14.2.1/thumb/v7e-m+fp/hard\libc_nano.a(libc_a-wsetup.o) (__smakebuf_r)
c:/Program Files/ARMtoolchain/bin/../lib/gcc/arm-none-eabi/14.2.1/thumb/v7e-m+fp/hard\libc_nano.a(libc_a-memmove.o)
                              c:/Program Files/ARMtoolchain/bin/../lib/gcc/arm-none-eabi/14.2.1/thumb/v7e-m+fp/hard\libc_nano.a(libc_a-fvwrite.o) (memmove)
c:/Program Files/ARMtoolchain/bin/../lib/gcc/arm-none-eabi/14.2.1/thumb/v7e-m+fp/hard\libc_nano.a(libc_a-fstatr.o)
                              c:/Program Files/ARMtoolchain/bin/../lib/gcc/arm-none-eabi/14.2.1/thumb/v7e-m+fp/hard\libc_nano.a(libc_a-makebuf.o) (_fstat_r)
c:/Program Files/ARMtoolchain/bin/../lib/gcc/arm-none-eabi/14.2.1/thumb/v7e-m+fp/hard\libc_nano.a(libc_a-isattyr.o)
                              c:/Program Files/ARMtoolchain/bin/../lib/gcc/arm-none-eabi/14.2.1/thumb/v7e-m+fp/hard\libc_nano.a(libc_a-makebuf.o) (_isatty_r)
c:/Program Files/ARMtoolchain/bin/../lib/gcc/arm-none-eabi/14.2.1/thumb/v7e-m+fp/hard\libc_nano.a(libc_a-sbrkr.o)
                              c:/Program Files/ARMtoolchain/bin/../lib/gcc/arm-none-eabi/14.2.1/thumb/v7e-m+fp/hard\libc_nano.a(libc_a-mallocr.o) (_sbrk_r)
c:/Program Files/ARMtoolchain/bin/../lib/gcc/arm-none-eabi/14.2.1/thumb/v7e-m+fp/hard\libc_nano.a(libc_a-memchr.o)
                              c:/Program Files/ARMtoolchain/bin/../lib/gcc/arm-none-eabi/14.2.1/thumb/v7e-m+fp/hard\libc_nano.a(libc_a-nano-vfprintf.o) (memchr)
c:/Program Files/ARMtoolchain/bin/../lib/gcc/arm-none-eabi/14.2.1/thumb/v7e-m+fp/hard\libc_nano.a(libc_a-reallocr.o)
                              c:/Program Files/ARMtoolchain/bin/../lib/gcc/arm-none-eabi/14.2.1/thumb/v7e-m+fp/hard\libc_nano.a(libc_a-fvwrite.o) (_realloc_r)
c:/Program Files/ARMtoolchain/bin/../lib/gcc/arm-none-eabi/14.2.1/thumb/v7e-m+fp/hard\libc_nano.a(libc_a-msizer.o)
                              c:/Program Files/ARMtoolchain/bin/../lib/gcc/arm-none-eabi/14.2.1/thumb/v7e-m+fp/hard\libc_nano.a(libc_a-reallocr.o) (_malloc_usable_size_r)
c:/Program Files/ARMtoolchain/bin/../lib/gcc/arm-none-eabi/14.2.1/thumb/v7e-m+fp/hard\libm.a(libm_a-w_log.o)
                              build/thermal_control.o (log)
c:/Program Files/ARMtoolchain/bin/../lib/gcc/arm-none-eabi/14.2.1/thumb/v7e-m+fp/hard\libm.a(libm_a-s_nan.o)
                              c:/Program Files/ARMtoolchain/bin/../lib/gcc/arm-none-eabi/14.2.1/thumb/v7e-m+fp/hard\libm.a(libm_a-w_log.o) (nan)
c:/Program Files/ARMtoolchain/bin/../lib/gcc/arm-none-eabi/14.2.1/thumb/v7e-m+fp/hard\libm.a(libm_a-s_round.o)
                              build/thermal_control.o (round)
c:/Program Files/ARMtoolchain/bin/../lib/gcc/arm-none-eabi/14.2.1/thumb/v7e-m+fp/hard\libm.a(libm_a-e_log.o)
                              c:/Program Files/ARMtoolchain/bin/../lib/gcc/arm-none-eabi/14.2.1/thumb/v7e-m+fp/hard\libm.a(libm_a-w_log.o) (__ieee754_log)
c:/Program Files/ARMtoolchain/bin/../lib/gcc/arm-none-eabi/14.2.1/thumb/v7e-m+fp/hard\libnosys.a(close.o)
                              c:/Program Files/ARMtoolchain/bin/../lib/gcc/arm-none-eabi/14.2.1/thumb/v7e-m+fp/hard\libc_nano.a(libc_a-closer.o) (_close)
c:/Program Files/ARMtoolchain/bin/../lib/gcc/arm-none-eabi/14.2.1/thumb/v7e-m+fp/hard\libnosys.a(fstat.o)
                              c:/Program Files/ARMtoolchain/bin/../lib/gcc/arm-none-eabi/14.2.1/thumb/v7e-m+fp/hard\libc_nano.a(libc_a-fstatr.o) (_fstat)
c:/Program Files/ARMtoolchain/bin/../lib/gcc/arm-none-eabi/14.2.1/thumb/v7e-m+fp/hard\libnosys.a(isatty.o)
                              c:/Program Files/ARMtoolchain/bin/../lib/gcc/arm-none-eabi/14.2.1/thumb/v7e-m+fp/hard\libc_nano.a(libc_a-isattyr.o) (_isatty)
c:/Program Files/ARMtoolchain/bin/../lib/gcc/arm-none-eabi/14.2.1/thumb/v7e-m+fp/hard\libnosys.a(lseek.o)
                              c:/Program Files/ARMtoolchain/bin/../lib/gcc/arm-none-eabi/14.2.1/thumb/v7e-m+fp/hard\libc_nano.a(libc_a-lseekr.o) (_lseek)
c:/Program Files/ARMtoolchain/bin/../lib/gcc/arm-none-eabi/14.2.1/thumb/v7e-m+fp/hard\libnosys.a(read.o)
                              c:/Program Files/ARMtoolchain/bin/../lib/gcc/arm-none-eabi/14.2.1/thumb/v7e-m+fp/hard\libc_nano.a(libc_a-readr.o) (_read)
c:/Program Files/ARMtoolchain/bin/../lib/gcc/arm-none-eabi/14.2.1/thumb/v7e-m+fp/hard\libnosys.a(sbrk.o)
                              c:/Program Files/ARMtoolchain/bin/../lib/gcc/arm-none-eabi/14.2.1/thumb/v7e-m+fp/hard\libc_nano.a(libc_a-sbrkr.o) (_sbrk)
c:/Program Files/ARMtoolchain/bin/../lib/gcc/arm-none-eabi/14.2.1/thumb/v7e-m+fp/hard\libnosys.a(_exit.o)
                              c:/Program Files/ARMtoolchain/bin/../lib/gcc/arm-none-eabi/14.2.1/thumb/v7e-m+fp/hard\libc_nano.a(libc_a-exit.o) (_exit)
c:/Program Files/ARMtoolchain/bin/../lib/gcc/arm-none-eabi/14.2.1/thumb/v7e-m+fp/hard\libgcc.a(_arm_muldf3.o)
                              build/main.o (__aeabi_dmul)
c:/Program Files/ARMtoolchain/bin/../lib/gcc/arm-none-eabi/14.2.1/thumb/v7e-m+fp/hard\libgcc.a(_arm_addsubdf3.o)
                              build/main.o (__aeabi_dsub)
c:/Program Files/ARMtoolchain/bin/../lib/gcc/arm-none-eabi/14.2.1/thumb/v7e-m+fp/hard\libgcc.a(_arm_muldivdf3.o)
                              build/main.o (__aeabi_ddiv)
c:/Program Files/ARMtoolchain/bin/../lib/gcc/arm-none-eabi/14.2.1/thumb/v7e-m+fp/hard\libgcc.a(_arm_cmpdf2.o)
                              c:/Program Files/ARMtoolchain/bin/../lib/gcc/arm-none-eabi/14.2.1/thumb/v7e-m+fp/hard\libm.a(libm_a-w_log.o) (__aeabi_dcmpeq)
c:/Program Files/ARMtoolchain/bin/../lib/gcc/arm-none-eabi/14.2.1/thumb/v7e-m+fp/hard\libgcc.a(_arm_unorddf2.o)
                              c:/Program Files/ARMtoolchain/bin/../lib/gcc/arm-none-eabi/14.2.1/thumb/v7e-m+fp/hard\libm.a(libm_a-w_log.o) (__aeabi_dcmpun)
c:/Program Files/ARMtoolchain/bin/../lib/gcc/arm-none-eabi/14.2.1/thumb/v7e-m+fp/hard\libgcc.a(_arm_fixunsdfsi.o)
                              build/main.o (__aeabi_d2uiz)
c:/Program Files/ARMtoolchain/bin/../lib/gcc/arm-none-eabi/14.2.1/thumb/v7e-m+fp/hard\libgcc.a(_aeabi_uldivmod.o)
                              build/stm32f4xx_hal_rcc.o (__aeabi_uldivmod)
c:/Program Files/ARMtoolchain/bin/../lib/gcc/arm-none-eabi/14.2.1/thumb/v7e-m+fp/hard\libgcc.a(_udivmoddi4.o)
                              c:/Program Files/ARMtoolchain/bin/../lib/gcc/arm-none-eabi/14.2.1/thumb/v7e-m+fp/hard\libgcc.a(_aeabi_uldivmod.o) (__udivmoddi4)
c:/Program Files/ARMtoolchain/bin/../lib/gcc/arm-none-eabi/14.2.1/thumb/v7e-m+fp/hard\libgcc.a(_dvmd_tls.o)
                              c:/Program Files/ARMtoolchain/bin/../lib/gcc/arm-none-eabi/14.2.1/thumb/v7e-m+fp/hard\libgcc.a(_aeabi_uldivmod.o) (__aeabi_ldiv0)
c:/Program Files/ARMtoolchain/bin/../lib/gcc/arm-none-eabi/14.2.1/thumb/v7e-m+fp/hard\libc_nano.a(libc_a-errno.o)
                              c:/Program Files/ARMtoolchain/bin/../lib/gcc/arm-none-eabi/14.2.1/thumb/v7e-m+fp/hard\libm.a(libm_a-w_log.o) (__errno)

Discarded input sections

 .text          0x00000000        0x0 c:/Program Files/ARMtoolchain/bin/../lib/gcc/arm-none-eabi/14.2.1/thumb/v7e-m+fp/hard/crti.o
 .data          0x00000000        0x0 c:/Program Files/ARMtoolchain/bin/../lib/gcc/arm-none-eabi/14.2.1/thumb/v7e-m+fp/hard/crti.o
 .bss           0x00000000        0x0 c:/Program Files/ARMtoolchain/bin/../lib/gcc/arm-none-eabi/14.2.1/thumb/v7e-m+fp/hard/crti.o
 .text          0x00000000        0x0 c:/Program Files/ARMtoolchain/bin/../lib/gcc/arm-none-eabi/14.2.1/thumb/v7e-m+fp/hard/crtbegin.o
 .data          0x00000000        0x0 c:/Program Files/ARMtoolchain/bin/../lib/gcc/arm-none-eabi/14.2.1/thumb/v7e-m+fp/hard/crtbegin.o
 .bss           0x00000000        0x0 c:/Program Files/ARMtoolchain/bin/../lib/gcc/arm-none-eabi/14.2.1/thumb/v7e-m+fp/hard/crtbegin.o
 .rodata.all_implied_fbits
                0x00000000       0x24 c:/Program Files/ARMtoolchain/bin/../lib/gcc/arm-none-eabi/14.2.1/thumb/v7e-m+fp/hard/crtbegin.o
 .data.__dso_handle
                0x00000000        0x4 c:/Program Files/ARMtoolchain/bin/../lib/gcc/arm-none-eabi/14.2.1/thumb/v7e-m+fp/hard/crtbegin.o
 .text          0x00000000       0x7c c:/Program Files/ARMtoolchain/bin/../lib/gcc/arm-none-eabi/14.2.1/thumb/v7e-m+fp/hard/crt0.o
 .data          0x00000000        0x0 c:/Program Files/ARMtoolchain/bin/../lib/gcc/arm-none-eabi/14.2.1/thumb/v7e-m+fp/hard/crt0.o
 .bss           0x00000000        0x0 c:/Program Files/ARMtoolchain/bin/../lib/gcc/arm-none-eabi/14.2.1/thumb/v7e-m+fp/hard/crt0.o
 .ARM.extab     0x00000000        0x0 c:/Program Files/ARMtoolchain/bin/../lib/gcc/arm-none-eabi/14.2.1/thumb/v7e-m+fp/hard/crt0.o
 .ARM.exidx     0x00000000       0x10 c:/Program Files/ARMtoolchain/bin/../lib/gcc/arm-none-eabi/14.2.1/thumb/v7e-m+fp/hard/crt0.o
 .debug_line_str
                0x00000000       0xd6 c:/Program Files/ARMtoolchain/bin/../lib/gcc/arm-none-eabi/14.2.1/thumb/v7e-m+fp/hard/crt0.o
 .ARM.attributes
                0x00000000       0x20 c:/Program Files/ARMtoolchain/bin/../lib/gcc/arm-none-eabi/14.2.1/thumb/v7e-m+fp/hard/crt0.o
 .text          0x00000000        0x0 build/main.o
 .data          0x00000000        0x0 build/main.o
 .bss           0x00000000        0x0 build/main.o
 .text.POT_manager
                0x00000000       0x18 build/main.o
 .bss.MessageLength
                0x00000000        0x1 build/main.o
 .bss.MessageCounter
                0x00000000        0x1 build/main.o
 .bss.DataToSend
                0x00000000       0x10 build/main.o
 .rodata.POT_attributes
                0x00000000       0x24 build/main.o
 .bss.POT_manager_handle
                0x00000000        0x4 build/main.o
 .bss.LED_manager_handle
                0x00000000        0x4 build/main.o
 .text          0x00000000        0x0 build/thermal_control.o
 .data          0x00000000        0x0 build/thermal_control.o
 .bss           0x00000000        0x0 build/thermal_control.o
 .text.calc_dac_value
                0x00000000       0x30 build/thermal_control.o
 .bss.T         0x00000000        0x8 build/thermal_control.o
 .bss.out       0x00000000        0x4 build/thermal_control.o
 .bss.R2        0x00000000        0x4 build/thermal_control.o
 .bss.logR2     0x00000000        0x4 build/thermal_control.o
 .text          0x00000000        0x0 build/freertos.o
 .data          0x00000000        0x0 build/freertos.o
 .bss           0x00000000        0x0 build/freertos.o
 .debug_info    0x00000000       0x72 build/freertos.o
 .debug_abbrev  0x00000000       0x26 build/freertos.o
 .debug_aranges
                0x00000000       0x18 build/freertos.o
 .debug_line    0x00000000       0x34 build/freertos.o
 .debug_str     0x00000000      0x16b build/freertos.o
 .comment       0x00000000       0x46 build/freertos.o
 .ARM.attributes
                0x00000000       0x34 build/freertos.o
 .text          0x00000000        0x0 build/stm32f4xx_it.o
 .data          0x00000000        0x0 build/stm32f4xx_it.o
 .bss           0x00000000        0x0 build/stm32f4xx_it.o
 .text          0x00000000        0x0 build/stm32f4xx_hal_msp.o
 .data          0x00000000        0x0 build/stm32f4xx_hal_msp.o
 .bss           0x00000000        0x0 build/stm32f4xx_hal_msp.o
 .text.HAL_ADC_MspDeInit
                0x00000000       0x2c build/stm32f4xx_hal_msp.o
 .text.HAL_I2C_MspDeInit
                0x00000000       0x38 build/stm32f4xx_hal_msp.o
 .text.HAL_TIM_Base_MspDeInit
                0x00000000       0x1c build/stm32f4xx_hal_msp.o
 .text          0x00000000        0x0 build/stm32f4xx_hal_timebase_tim.o
 .data          0x00000000        0x0 build/stm32f4xx_hal_timebase_tim.o
 .bss           0x00000000        0x0 build/stm32f4xx_hal_timebase_tim.o
 .text.HAL_SuspendTick
                0x00000000       0x14 build/stm32f4xx_hal_timebase_tim.o
 .text.HAL_ResumeTick
                0x00000000       0x14 build/stm32f4xx_hal_timebase_tim.o
 .text          0x00000000        0x0 build/usb_device.o
 .data          0x00000000        0x0 build/usb_device.o
 .bss           0x00000000        0x0 build/usb_device.o
 .text          0x00000000        0x0 build/usbd_desc.o
 .data          0x00000000        0x0 build/usbd_desc.o
 .bss           0x00000000        0x0 build/usbd_desc.o
 .text          0x00000000        0x0 build/usbd_cdc_if.o
 .data          0x00000000        0x0 build/usbd_cdc_if.o
 .bss           0x00000000        0x0 build/usbd_cdc_if.o
 .text          0x00000000        0x0 build/usbd_conf.o
 .data          0x00000000        0x0 build/usbd_conf.o
 .bss           0x00000000        0x0 build/usbd_conf.o
 .text.USBD_LL_Delay
                0x00000000        0x8 build/usbd_conf.o
 .text.USBD_LL_FlushEP
                0x00000000       0x10 build/usbd_conf.o
 .text          0x00000000        0x0 build/stm32f4xx_hal_tim.o
 .data          0x00000000        0x0 build/stm32f4xx_hal_tim.o
 .bss           0x00000000        0x0 build/stm32f4xx_hal_tim.o
 .text.TIM_TI2_SetConfig
                0x00000000       0x36 build/stm32f4xx_hal_tim.o
 .text.TIM_TI3_SetConfig
                0x00000000       0x36 build/stm32f4xx_hal_tim.o
 .text.TIM_TI4_SetConfig
                0x00000000       0x36 build/stm32f4xx_hal_tim.o
 .text.HAL_TIM_Base_MspInit
                0x00000000        0x2 build/stm32f4xx_hal_tim.o
 .text.HAL_TIM_Base_MspDeInit
                0x00000000        0x2 build/stm32f4xx_hal_tim.o
 .text.HAL_TIM_Base_DeInit
                0x00000000       0x5e build/stm32f4xx_hal_tim.o
 .text.HAL_TIM_Base_Start
                0x00000000       0x6c build/stm32f4xx_hal_tim.o
 .text.HAL_TIM_Base_Stop
                0x00000000       0x28 build/stm32f4xx_hal_tim.o
 .text.HAL_TIM_Base_Stop_IT
                0x00000000       0x32 build/stm32f4xx_hal_tim.o
 .text.HAL_TIM_Base_Start_DMA
                0x00000000       0xc0 build/stm32f4xx_hal_tim.o
 .text.HAL_TIM_Base_Stop_DMA
                0x00000000       0x3c build/stm32f4xx_hal_tim.o
 .text.HAL_TIM_OC_MspInit
                0x00000000        0x2 build/stm32f4xx_hal_tim.o
 .text.HAL_TIM_OC_MspDeInit
                0x00000000        0x2 build/stm32f4xx_hal_tim.o
 .text.HAL_TIM_OC_DeInit
                0x00000000       0x5e build/stm32f4xx_hal_tim.o
 .text.HAL_TIM_PWM_MspDeInit
                0x00000000        0x2 build/stm32f4xx_hal_tim.o
 .text.HAL_TIM_PWM_DeInit
                0x00000000       0x5e build/stm32f4xx_hal_tim.o
 .text.HAL_TIM_IC_MspInit
                0x00000000        0x2 build/stm32f4xx_hal_tim.o
 .text.HAL_TIM_IC_MspDeInit
                0x00000000        0x2 build/stm32f4xx_hal_tim.o
 .text.HAL_TIM_IC_DeInit
                0x00000000       0x5e build/stm32f4xx_hal_tim.o
 .text.HAL_TIM_OnePulse_MspInit
                0x00000000        0x2 build/stm32f4xx_hal_tim.o
 .text.HAL_TIM_OnePulse_MspDeInit
                0x00000000        0x2 build/stm32f4xx_hal_tim.o
 .text.HAL_TIM_OnePulse_DeInit
                0x00000000       0x4e build/stm32f4xx_hal_tim.o
 .text.HAL_TIM_Encoder_MspInit
                0x00000000        0x2 build/stm32f4xx_hal_tim.o
 .text.HAL_TIM_Encoder_MspDeInit
                0x00000000        0x2 build/stm32f4xx_hal_tim.o
 .text.HAL_TIM_Encoder_DeInit
                0x00000000       0x4e build/stm32f4xx_hal_tim.o
 .text.HAL_TIM_DMABurst_MultiWriteStart
                0x00000000      0x1ac build/stm32f4xx_hal_tim.o
 .text.HAL_TIM_DMABurst_WriteStart
                0x00000000       0x16 build/stm32f4xx_hal_tim.o
 .text.HAL_TIM_DMABurst_WriteStop
                0x00000000       0x84 build/stm32f4xx_hal_tim.o
 .text.HAL_TIM_DMABurst_MultiReadStart
                0x00000000      0x1ac build/stm32f4xx_hal_tim.o
 .text.HAL_TIM_DMABurst_ReadStart
                0x00000000       0x16 build/stm32f4xx_hal_tim.o
 .text.HAL_TIM_DMABurst_ReadStop
                0x00000000       0x84 build/stm32f4xx_hal_tim.o
 .text.HAL_TIM_GenerateEvent
                0x00000000       0x2a build/stm32f4xx_hal_tim.o
 .text.HAL_TIM_ConfigTI1Input
                0x00000000       0x10 build/stm32f4xx_hal_tim.o
 .text.HAL_TIM_ReadCapturedValue
                0x00000000       0x32 build/stm32f4xx_hal_tim.o
 .text.HAL_TIM_PeriodElapsedCallback
                0x00000000        0x2 build/stm32f4xx_hal_tim.o
 .text.TIM_DMAPeriodElapsedCplt
                0x00000000       0x16 build/stm32f4xx_hal_tim.o
 .text.HAL_TIM_PeriodElapsedHalfCpltCallback
                0x00000000        0x2 build/stm32f4xx_hal_tim.o
 .text.TIM_DMAPeriodElapsedHalfCplt
                0x00000000        0xa build/stm32f4xx_hal_tim.o
 .text.TIM_DMACaptureCplt
                0x00000000       0x80 build/stm32f4xx_hal_tim.o
 .text.HAL_TIM_IC_CaptureHalfCpltCallback
                0x00000000        0x2 build/stm32f4xx_hal_tim.o
 .text.TIM_DMACaptureHalfCplt
                0x00000000       0x3e build/stm32f4xx_hal_tim.o
 .text.TIM_DMADelayPulseCplt
                0x00000000       0x70 build/stm32f4xx_hal_tim.o
 .text.HAL_TIM_PWM_PulseFinishedHalfCpltCallback
                0x00000000        0x2 build/stm32f4xx_hal_tim.o
 .text.TIM_DMADelayPulseHalfCplt
                0x00000000       0x3e build/stm32f4xx_hal_tim.o
 .text.TIM_DMATriggerCplt
                0x00000000       0x16 build/stm32f4xx_hal_tim.o
 .text.HAL_TIM_TriggerHalfCpltCallback
                0x00000000        0x2 build/stm32f4xx_hal_tim.o
 .text.TIM_DMATriggerHalfCplt
                0x00000000        0xa build/stm32f4xx_hal_tim.o
 .text.HAL_TIM_ErrorCallback
                0x00000000        0x2 build/stm32f4xx_hal_tim.o
 .text.TIM_DMAError
                0x00000000       0x5c build/stm32f4xx_hal_tim.o
 .text.HAL_TIM_Base_GetState
                0x00000000        0x6 build/stm32f4xx_hal_tim.o
 .text.HAL_TIM_OC_GetState
                0x00000000        0x6 build/stm32f4xx_hal_tim.o
 .text.HAL_TIM_PWM_GetState
                0x00000000        0x6 build/stm32f4xx_hal_tim.o
 .text.HAL_TIM_IC_GetState
                0x00000000        0x6 build/stm32f4xx_hal_tim.o
 .text.HAL_TIM_OnePulse_GetState
                0x00000000        0x6 build/stm32f4xx_hal_tim.o
 .text.HAL_TIM_Encoder_GetState
                0x00000000        0x6 build/stm32f4xx_hal_tim.o
 .text.HAL_TIM_GetActiveChannel
                0x00000000        0x4 build/stm32f4xx_hal_tim.o
 .text.HAL_TIM_GetChannelState
                0x00000000       0x2a build/stm32f4xx_hal_tim.o
 .text.HAL_TIM_DMABurstState
                0x00000000        0x6 build/stm32f4xx_hal_tim.o
 .text.HAL_TIM_OC_Init
                0x00000000       0x58 build/stm32f4xx_hal_tim.o
 .text.HAL_TIM_IC_Init
                0x00000000       0x58 build/stm32f4xx_hal_tim.o
 .text.HAL_TIM_OnePulse_Init
                0x00000000       0x5c build/stm32f4xx_hal_tim.o
 .text.HAL_TIM_Encoder_Init
                0x00000000       0xb0 build/stm32f4xx_hal_tim.o
 .text.HAL_TIM_OC_ConfigChannel
                0x00000000       0x5e build/stm32f4xx_hal_tim.o
 .text.TIM_TI1_SetConfig
                0x00000000       0x6c build/stm32f4xx_hal_tim.o
 .text.HAL_TIM_IC_ConfigChannel
                0x00000000       0xcc build/stm32f4xx_hal_tim.o
 .text.HAL_TIM_OnePulse_ConfigChannel
                0x00000000       0xfa build/stm32f4xx_hal_tim.o
 .text.HAL_TIM_ConfigOCrefClear
                0x00000000       0xfa build/stm32f4xx_hal_tim.o
 .text.TIM_SlaveTimer_SetConfig
                0x00000000       0xb8 build/stm32f4xx_hal_tim.o
 .text.HAL_TIM_SlaveConfigSynchro
                0x00000000       0x52 build/stm32f4xx_hal_tim.o
 .text.HAL_TIM_SlaveConfigSynchro_IT
                0x00000000       0x52 build/stm32f4xx_hal_tim.o
 .text.HAL_TIM_OC_Start
                0x00000000       0xe4 build/stm32f4xx_hal_tim.o
 .text.HAL_TIM_OC_Stop
                0x00000000       0x84 build/stm32f4xx_hal_tim.o
 .text.HAL_TIM_OC_Start_IT
                0x00000000      0x154 build/stm32f4xx_hal_tim.o
 .text.HAL_TIM_OC_Stop_IT
                0x00000000       0xd4 build/stm32f4xx_hal_tim.o
 .text.HAL_TIM_OC_Start_DMA
                0x00000000      0x270 build/stm32f4xx_hal_tim.o
 .text.HAL_TIM_OC_Stop_DMA
                0x00000000       0xec build/stm32f4xx_hal_tim.o
 .text.HAL_TIM_PWM_Stop
                0x00000000       0x84 build/stm32f4xx_hal_tim.o
 .text.HAL_TIM_PWM_Start_IT
                0x00000000      0x154 build/stm32f4xx_hal_tim.o
 .text.HAL_TIM_PWM_Stop_IT
                0x00000000       0xd4 build/stm32f4xx_hal_tim.o
 .text.HAL_TIM_PWM_Start_DMA
                0x00000000      0x270 build/stm32f4xx_hal_tim.o
 .text.HAL_TIM_PWM_Stop_DMA
                0x00000000       0xec build/stm32f4xx_hal_tim.o
 .text.HAL_TIM_IC_Start
                0x00000000      0x10c build/stm32f4xx_hal_tim.o
 .text.HAL_TIM_IC_Stop
                0x00000000       0x7a build/stm32f4xx_hal_tim.o
 .text.HAL_TIM_IC_Start_IT
                0x00000000      0x184 build/stm32f4xx_hal_tim.o
 .text.HAL_TIM_IC_Stop_IT
                0x00000000       0xca build/stm32f4xx_hal_tim.o
 .text.HAL_TIM_IC_Start_DMA
                0x00000000      0x240 build/stm32f4xx_hal_tim.o
 .text.HAL_TIM_IC_Stop_DMA
                0x00000000       0xe0 build/stm32f4xx_hal_tim.o
 .text.HAL_TIM_OnePulse_Start
                0x00000000       0x7c build/stm32f4xx_hal_tim.o
 .text.HAL_TIM_OnePulse_Stop
                0x00000000       0x78 build/stm32f4xx_hal_tim.o
 .text.HAL_TIM_OnePulse_Start_IT
                0x00000000       0x94 build/stm32f4xx_hal_tim.o
 .text.HAL_TIM_OnePulse_Stop_IT
                0x00000000       0x8c build/stm32f4xx_hal_tim.o
 .text.HAL_TIM_Encoder_Start
                0x00000000       0xcc build/stm32f4xx_hal_tim.o
 .text.HAL_TIM_Encoder_Stop
                0x00000000       0x8a build/stm32f4xx_hal_tim.o
 .text.HAL_TIM_Encoder_Start_IT
                0x00000000       0xf6 build/stm32f4xx_hal_tim.o
 .text.HAL_TIM_Encoder_Stop_IT
                0x00000000       0xb4 build/stm32f4xx_hal_tim.o
 .text.HAL_TIM_Encoder_Start_DMA
                0x00000000      0x264 build/stm32f4xx_hal_tim.o
 .text.HAL_TIM_Encoder_Stop_DMA
                0x00000000       0xcc build/stm32f4xx_hal_tim.o
 .text          0x00000000        0x0 build/stm32f4xx_hal_tim_ex.o
 .data          0x00000000        0x0 build/stm32f4xx_hal_tim_ex.o
 .bss           0x00000000        0x0 build/stm32f4xx_hal_tim_ex.o
 .text.TIM_CCxNChannelCmd
                0x00000000       0x1e build/stm32f4xx_hal_tim_ex.o
 .text.TIM_DMAErrorCCxN
                0x00000000       0x44 build/stm32f4xx_hal_tim_ex.o
 .text.TIM_DMADelayPulseNCplt
                0x00000000       0x58 build/stm32f4xx_hal_tim_ex.o
 .text.HAL_TIMEx_HallSensor_MspInit
                0x00000000        0x2 build/stm32f4xx_hal_tim_ex.o
 .text.HAL_TIMEx_HallSensor_Init
                0x00000000       0xd4 build/stm32f4xx_hal_tim_ex.o
 .text.HAL_TIMEx_HallSensor_MspDeInit
                0x00000000        0x2 build/stm32f4xx_hal_tim_ex.o
 .text.HAL_TIMEx_HallSensor_DeInit
                0x00000000       0x4e build/stm32f4xx_hal_tim_ex.o
 .text.HAL_TIMEx_HallSensor_Start
                0x00000000       0xb0 build/stm32f4xx_hal_tim_ex.o
 .text.HAL_TIMEx_HallSensor_Stop
                0x00000000       0x42 build/stm32f4xx_hal_tim_ex.o
 .text.HAL_TIMEx_HallSensor_Start_IT
                0x00000000       0xbc build/stm32f4xx_hal_tim_ex.o
 .text.HAL_TIMEx_HallSensor_Stop_IT
                0x00000000       0x4c build/stm32f4xx_hal_tim_ex.o
 .text.HAL_TIMEx_HallSensor_Start_DMA
                0x00000000       0xe0 build/stm32f4xx_hal_tim_ex.o
 .text.HAL_TIMEx_HallSensor_Stop_DMA
                0x00000000       0x4a build/stm32f4xx_hal_tim_ex.o
 .text.HAL_TIMEx_OCN_Start
                0x00000000       0xe0 build/stm32f4xx_hal_tim_ex.o
 .text.HAL_TIMEx_OCN_Stop
                0x00000000       0x76 build/stm32f4xx_hal_tim_ex.o
 .text.HAL_TIMEx_OCN_Start_IT
                0x00000000      0x114 build/stm32f4xx_hal_tim_ex.o
 .text.HAL_TIMEx_OCN_Stop_IT
                0x00000000       0xc4 build/stm32f4xx_hal_tim_ex.o
 .text.HAL_TIMEx_OCN_Start_DMA
                0x00000000      0x200 build/stm32f4xx_hal_tim_ex.o
 .text.HAL_TIMEx_OCN_Stop_DMA
                0x00000000       0xc2 build/stm32f4xx_hal_tim_ex.o
 .text.HAL_TIMEx_PWMN_Start
                0x00000000       0xe0 build/stm32f4xx_hal_tim_ex.o
 .text.HAL_TIMEx_PWMN_Stop
                0x00000000       0x76 build/stm32f4xx_hal_tim_ex.o
 .text.HAL_TIMEx_PWMN_Start_IT
                0x00000000      0x114 build/stm32f4xx_hal_tim_ex.o
 .text.HAL_TIMEx_PWMN_Stop_IT
                0x00000000       0xc4 build/stm32f4xx_hal_tim_ex.o
 .text.HAL_TIMEx_PWMN_Start_DMA
                0x00000000      0x200 build/stm32f4xx_hal_tim_ex.o
 .text.HAL_TIMEx_PWMN_Stop_DMA
                0x00000000       0xc2 build/stm32f4xx_hal_tim_ex.o
 .text.HAL_TIMEx_OnePulseN_Start
                0x00000000       0x7e build/stm32f4xx_hal_tim_ex.o
 .text.HAL_TIMEx_OnePulseN_Stop
                0x00000000       0x72 build/stm32f4xx_hal_tim_ex.o
 .text.HAL_TIMEx_OnePulseN_Start_IT
                0x00000000       0x92 build/stm32f4xx_hal_tim_ex.o
 .text.HAL_TIMEx_OnePulseN_Stop_IT
                0x00000000       0x86 build/stm32f4xx_hal_tim_ex.o
 .text.HAL_TIMEx_ConfigCommutEvent
                0x00000000       0x76 build/stm32f4xx_hal_tim_ex.o
 .text.HAL_TIMEx_ConfigCommutEvent_IT
                0x00000000       0x76 build/stm32f4xx_hal_tim_ex.o
 .text.HAL_TIMEx_ConfigCommutEvent_DMA
                0x00000000       0x94 build/stm32f4xx_hal_tim_ex.o
 .text.HAL_TIMEx_ConfigBreakDeadTime
                0x00000000       0x52 build/stm32f4xx_hal_tim_ex.o
 .text.HAL_TIMEx_RemapConfig
                0x00000000       0x20 build/stm32f4xx_hal_tim_ex.o
 .text.TIMEx_DMACommutationCplt
                0x00000000       0x10 build/stm32f4xx_hal_tim_ex.o
 .text.HAL_TIMEx_CommutHalfCpltCallback
                0x00000000        0x2 build/stm32f4xx_hal_tim_ex.o
 .text.TIMEx_DMACommutationHalfCplt
                0x00000000       0x10 build/stm32f4xx_hal_tim_ex.o
 .text.HAL_TIMEx_HallSensor_GetState
                0x00000000        0x6 build/stm32f4xx_hal_tim_ex.o
 .text.HAL_TIMEx_GetChannelNState
                0x00000000       0x2a build/stm32f4xx_hal_tim_ex.o
 .text          0x00000000        0x0 build/stm32f4xx_hal_pcd.o
 .data          0x00000000        0x0 build/stm32f4xx_hal_pcd.o
 .bss           0x00000000        0x0 build/stm32f4xx_hal_pcd.o
 .text.HAL_PCD_MspInit
                0x00000000        0x2 build/stm32f4xx_hal_pcd.o
 .text.HAL_PCD_MspDeInit
                0x00000000        0x2 build/stm32f4xx_hal_pcd.o
 .text.HAL_PCD_WKUP_IRQHandler
                0x00000000       0x20 build/stm32f4xx_hal_pcd.o
 .text.HAL_PCD_DataOutStageCallback
                0x00000000        0x2 build/stm32f4xx_hal_pcd.o
 .text.HAL_PCD_DataInStageCallback
                0x00000000        0x2 build/stm32f4xx_hal_pcd.o
 .text.HAL_PCD_SetupStageCallback
                0x00000000        0x2 build/stm32f4xx_hal_pcd.o
 .text.HAL_PCD_SOFCallback
                0x00000000        0x2 build/stm32f4xx_hal_pcd.o
 .text.HAL_PCD_ResetCallback
                0x00000000        0x2 build/stm32f4xx_hal_pcd.o
 .text.HAL_PCD_SuspendCallback
                0x00000000        0x2 build/stm32f4xx_hal_pcd.o
 .text.HAL_PCD_ResumeCallback
                0x00000000        0x2 build/stm32f4xx_hal_pcd.o
 .text.HAL_PCD_ISOOUTIncompleteCallback
                0x00000000        0x2 build/stm32f4xx_hal_pcd.o
 .text.HAL_PCD_ISOINIncompleteCallback
                0x00000000        0x2 build/stm32f4xx_hal_pcd.o
 .text.HAL_PCD_ConnectCallback
                0x00000000        0x2 build/stm32f4xx_hal_pcd.o
 .text.HAL_PCD_DisconnectCallback
                0x00000000        0x2 build/stm32f4xx_hal_pcd.o
 .text.HAL_PCD_DevConnect
                0x00000000       0x3e build/stm32f4xx_hal_pcd.o
 .text.HAL_PCD_DevDisconnect
                0x00000000       0x3e build/stm32f4xx_hal_pcd.o
 .text.HAL_PCD_EP_Flush
                0x00000000       0x36 build/stm32f4xx_hal_pcd.o
 .text.HAL_PCD_ActivateRemoteWakeup
                0x00000000        0xa build/stm32f4xx_hal_pcd.o
 .text.HAL_PCD_DeActivateRemoteWakeup
                0x00000000        0xa build/stm32f4xx_hal_pcd.o
 .text.HAL_PCD_GetState
                0x00000000        0x6 build/stm32f4xx_hal_pcd.o
 .text.HAL_PCD_SetTestMode
                0x00000000       0x18 build/stm32f4xx_hal_pcd.o
 .text          0x00000000        0x0 build/stm32f4xx_hal_pcd_ex.o
 .data          0x00000000        0x0 build/stm32f4xx_hal_pcd_ex.o
 .bss           0x00000000        0x0 build/stm32f4xx_hal_pcd_ex.o
 .text.HAL_PCDEx_BCD_Callback
                0x00000000        0x2 build/stm32f4xx_hal_pcd_ex.o
 .text          0x00000000        0x0 build/stm32f4xx_ll_usb.o
 .data          0x00000000        0x0 build/stm32f4xx_ll_usb.o
 .bss           0x00000000        0x0 build/stm32f4xx_ll_usb.o
 .text.USB_ActivateDedicatedEndpoint
                0x00000000       0x9c build/stm32f4xx_ll_usb.o
 .text.USB_DeactivateDedicatedEndpoint
                0x00000000       0xa0 build/stm32f4xx_ll_usb.o
 .text.USB_ReadChInterrupts
                0x00000000       0x12 build/stm32f4xx_ll_usb.o
 .text.USB_ClearInterrupts
                0x00000000        0x8 build/stm32f4xx_ll_usb.o
 .text.USB_HostInit
                0x00000000       0xdc build/stm32f4xx_ll_usb.o
 .text.USB_InitFSLSPClkSel
                0x00000000       0x42 build/stm32f4xx_ll_usb.o
 .text.USB_ResetPort
                0x00000000       0x3e build/stm32f4xx_ll_usb.o
 .text.USB_DriveVbus
                0x00000000       0x46 build/stm32f4xx_ll_usb.o
 .text.USB_GetHostSpeed
                0x00000000       0x16 build/stm32f4xx_ll_usb.o
 .text.USB_GetCurrentFrame
                0x00000000        0xa build/stm32f4xx_ll_usb.o
 .text.USB_HC_Init
                0x00000000      0x11a build/stm32f4xx_ll_usb.o
 .text.USB_HC_StartXfer
                0x00000000      0x284 build/stm32f4xx_ll_usb.o
 .text.USB_HC_ReadInterrupt
                0x00000000        0xa build/stm32f4xx_ll_usb.o
 .text.USB_HC_Halt
                0x00000000       0xfc build/stm32f4xx_ll_usb.o
 .text.USB_DoPing
                0x00000000       0x24 build/stm32f4xx_ll_usb.o
 .text.USB_StopHost
                0x00000000       0x92 build/stm32f4xx_ll_usb.o
 .text.USB_ActivateRemoteWakeup
                0x00000000       0x1a build/stm32f4xx_ll_usb.o
 .text.USB_DeActivateRemoteWakeup
                0x00000000       0x10 build/stm32f4xx_ll_usb.o
 .text          0x00000000        0x0 build/stm32f4xx_hal_rcc.o
 .data          0x00000000        0x0 build/stm32f4xx_hal_rcc.o
 .bss           0x00000000        0x0 build/stm32f4xx_hal_rcc.o
 .text.HAL_RCC_DeInit
                0x00000000        0x4 build/stm32f4xx_hal_rcc.o
 .text.HAL_RCC_MCOConfig
                0x00000000       0x9c build/stm32f4xx_hal_rcc.o
 .text.HAL_RCC_EnableCSS
                0x00000000        0xc build/stm32f4xx_hal_rcc.o
 .text.HAL_RCC_DisableCSS
                0x00000000        0xc build/stm32f4xx_hal_rcc.o
 .text.HAL_RCC_GetOscConfig
                0x00000000       0xcc build/stm32f4xx_hal_rcc.o
 .text.HAL_RCC_CSSCallback
                0x00000000        0x2 build/stm32f4xx_hal_rcc.o
 .text.HAL_RCC_NMI_IRQHandler
                0x00000000       0x20 build/stm32f4xx_hal_rcc.o
 .text          0x00000000        0x0 build/stm32f4xx_hal_rcc_ex.o
 .data          0x00000000        0x0 build/stm32f4xx_hal_rcc_ex.o
 .bss           0x00000000        0x0 build/stm32f4xx_hal_rcc_ex.o
 .text.HAL_RCCEx_PeriphCLKConfig
                0x00000000      0x16c build/stm32f4xx_hal_rcc_ex.o
 .text.HAL_RCCEx_GetPeriphCLKConfig
                0x00000000       0x44 build/stm32f4xx_hal_rcc_ex.o
 .text.HAL_RCCEx_GetPeriphCLKFreq
                0x00000000       0x70 build/stm32f4xx_hal_rcc_ex.o
 .text.HAL_RCCEx_EnablePLLI2S
                0x00000000       0x68 build/stm32f4xx_hal_rcc_ex.o
 .text.HAL_RCCEx_DisablePLLI2S
                0x00000000       0x34 build/stm32f4xx_hal_rcc_ex.o
 .text.HAL_RCC_DeInit
                0x00000000      0x13c build/stm32f4xx_hal_rcc_ex.o
 .debug_info    0x00000000      0x742 build/stm32f4xx_hal_rcc_ex.o
 .debug_abbrev  0x00000000      0x1dc build/stm32f4xx_hal_rcc_ex.o
 .debug_loc     0x00000000      0x45d build/stm32f4xx_hal_rcc_ex.o
 .debug_aranges
                0x00000000       0x48 build/stm32f4xx_hal_rcc_ex.o
 .debug_ranges  0x00000000       0x38 build/stm32f4xx_hal_rcc_ex.o
 .debug_line    0x00000000      0x64f build/stm32f4xx_hal_rcc_ex.o
 .debug_str     0x00000000      0x4c1 build/stm32f4xx_hal_rcc_ex.o
 .comment       0x00000000       0x46 build/stm32f4xx_hal_rcc_ex.o
 .debug_frame   0x00000000       0xa0 build/stm32f4xx_hal_rcc_ex.o
 .ARM.attributes
                0x00000000       0x34 build/stm32f4xx_hal_rcc_ex.o
 .text          0x00000000        0x0 build/stm32f4xx_hal_flash.o
 .data          0x00000000        0x0 build/stm32f4xx_hal_flash.o
 .bss           0x00000000        0x0 build/stm32f4xx_hal_flash.o
 .text.FLASH_Program_DoubleWord
                0x00000000       0x30 build/stm32f4xx_hal_flash.o
 .text.FLASH_Program_Word
                0x00000000       0x24 build/stm32f4xx_hal_flash.o
 .text.FLASH_Program_HalfWord
                0x00000000       0x24 build/stm32f4xx_hal_flash.o
 .text.FLASH_Program_Byte
                0x00000000       0x20 build/stm32f4xx_hal_flash.o
 .text.FLASH_SetErrorCode
                0x00000000       0xa8 build/stm32f4xx_hal_flash.o
 .text.HAL_FLASH_Program_IT
                0x00000000       0x54 build/stm32f4xx_hal_flash.o
 .text.HAL_FLASH_EndOfOperationCallback
                0x00000000        0x2 build/stm32f4xx_hal_flash.o
 .text.HAL_FLASH_OperationErrorCallback
                0x00000000        0x2 build/stm32f4xx_hal_flash.o
 .text.HAL_FLASH_IRQHandler
                0x00000000       0xe4 build/stm32f4xx_hal_flash.o
 .text.HAL_FLASH_Unlock
                0x00000000       0x30 build/stm32f4xx_hal_flash.o
 .text.HAL_FLASH_Lock
                0x00000000       0x14 build/stm32f4xx_hal_flash.o
 .text.HAL_FLASH_OB_Unlock
                0x00000000       0x28 build/stm32f4xx_hal_flash.o
 .text.HAL_FLASH_OB_Lock
                0x00000000       0x14 build/stm32f4xx_hal_flash.o
 .text.HAL_FLASH_GetError
                0x00000000        0xc build/stm32f4xx_hal_flash.o
 .text.FLASH_WaitForLastOperation
                0x00000000       0x60 build/stm32f4xx_hal_flash.o
 .text.HAL_FLASH_Program
                0x00000000       0x7c build/stm32f4xx_hal_flash.o
 .text.HAL_FLASH_OB_Launch
                0x00000000       0x1c build/stm32f4xx_hal_flash.o
 .bss.pFlash    0x00000000       0x20 build/stm32f4xx_hal_flash.o
 .debug_info    0x00000000      0x7d3 build/stm32f4xx_hal_flash.o
 .debug_abbrev  0x00000000      0x2d1 build/stm32f4xx_hal_flash.o
 .debug_loc     0x00000000      0x469 build/stm32f4xx_hal_flash.o
 .debug_aranges
                0x00000000       0xa0 build/stm32f4xx_hal_flash.o
 .debug_ranges  0x00000000       0x90 build/stm32f4xx_hal_flash.o
 .debug_line    0x00000000      0x728 build/stm32f4xx_hal_flash.o
 .debug_str     0x00000000      0x521 build/stm32f4xx_hal_flash.o
 .comment       0x00000000       0x46 build/stm32f4xx_hal_flash.o
 .debug_frame   0x00000000      0x164 build/stm32f4xx_hal_flash.o
 .ARM.attributes
                0x00000000       0x34 build/stm32f4xx_hal_flash.o
 .text          0x00000000        0x0 build/stm32f4xx_hal_flash_ex.o
 .data          0x00000000        0x0 build/stm32f4xx_hal_flash_ex.o
 .bss           0x00000000        0x0 build/stm32f4xx_hal_flash_ex.o
 .text.FLASH_MassErase
                0x00000000       0x24 build/stm32f4xx_hal_flash_ex.o
 .text.FLASH_OB_BOR_LevelConfig
                0x00000000       0x18 build/stm32f4xx_hal_flash_ex.o
 .text.FLASH_OB_GetUser
                0x00000000       0x10 build/stm32f4xx_hal_flash_ex.o
 .text.FLASH_OB_GetWRP
                0x00000000        0xc build/stm32f4xx_hal_flash_ex.o
 .text.FLASH_OB_GetRDP
                0x00000000       0x1c build/stm32f4xx_hal_flash_ex.o
 .text.FLASH_OB_GetBOR
                0x00000000       0x10 build/stm32f4xx_hal_flash_ex.o
 .text.FLASH_OB_EnableWRP
                0x00000000       0x20 build/stm32f4xx_hal_flash_ex.o
 .text.FLASH_OB_DisableWRP
                0x00000000       0x20 build/stm32f4xx_hal_flash_ex.o
 .text.FLASH_OB_RDP_LevelConfig
                0x00000000       0x18 build/stm32f4xx_hal_flash_ex.o
 .text.FLASH_OB_UserConfig
                0x00000000       0x2c build/stm32f4xx_hal_flash_ex.o
 .text.FLASH_OB_EnablePCROP
                0x00000000       0x20 build/stm32f4xx_hal_flash_ex.o
 .text.FLASH_OB_DisablePCROP
                0x00000000       0x20 build/stm32f4xx_hal_flash_ex.o
 .text.HAL_FLASHEx_OBProgram
                0x00000000       0x84 build/stm32f4xx_hal_flash_ex.o
 .text.HAL_FLASHEx_OBGetConfig
                0x00000000       0x22 build/stm32f4xx_hal_flash_ex.o
 .text.HAL_FLASHEx_AdvOBProgram
                0x00000000       0x24 build/stm32f4xx_hal_flash_ex.o
 .text.HAL_FLASHEx_AdvOBGetConfig
                0x00000000        0xc build/stm32f4xx_hal_flash_ex.o
 .text.HAL_FLASHEx_OB_SelectPCROP
                0x00000000       0x14 build/stm32f4xx_hal_flash_ex.o
 .text.HAL_FLASHEx_OB_DeSelectPCROP
                0x00000000       0x14 build/stm32f4xx_hal_flash_ex.o
 .text.FLASH_Erase_Sector
                0x00000000       0x4c build/stm32f4xx_hal_flash_ex.o
 .text.HAL_FLASHEx_Erase_IT
                0x00000000       0x54 build/stm32f4xx_hal_flash_ex.o
 .text.FLASH_FlushCaches
                0x00000000       0x60 build/stm32f4xx_hal_flash_ex.o
 .text.HAL_FLASHEx_Erase
                0x00000000       0x94 build/stm32f4xx_hal_flash_ex.o
 .debug_info    0x00000000      0xaba build/stm32f4xx_hal_flash_ex.o
 .debug_abbrev  0x00000000      0x2ab build/stm32f4xx_hal_flash_ex.o
 .debug_loc     0x00000000      0x910 build/stm32f4xx_hal_flash_ex.o
 .debug_aranges
                0x00000000       0xc8 build/stm32f4xx_hal_flash_ex.o
 .debug_ranges  0x00000000       0xb8 build/stm32f4xx_hal_flash_ex.o
 .debug_line    0x00000000      0x797 build/stm32f4xx_hal_flash_ex.o
 .debug_str     0x00000000      0x644 build/stm32f4xx_hal_flash_ex.o
 .comment       0x00000000       0x46 build/stm32f4xx_hal_flash_ex.o
 .debug_frame   0x00000000      0x1dc build/stm32f4xx_hal_flash_ex.o
 .ARM.attributes
                0x00000000       0x34 build/stm32f4xx_hal_flash_ex.o
 .text          0x00000000        0x0 build/stm32f4xx_hal_flash_ramfunc.o
 .data          0x00000000        0x0 build/stm32f4xx_hal_flash_ramfunc.o
 .bss           0x00000000        0x0 build/stm32f4xx_hal_flash_ramfunc.o
 .debug_info    0x00000000       0x6b build/stm32f4xx_hal_flash_ramfunc.o
 .debug_abbrev  0x00000000       0x26 build/stm32f4xx_hal_flash_ramfunc.o
 .debug_aranges
                0x00000000       0x18 build/stm32f4xx_hal_flash_ramfunc.o
 .debug_line    0x00000000       0x5f build/stm32f4xx_hal_flash_ramfunc.o
 .debug_str     0x00000000      0x191 build/stm32f4xx_hal_flash_ramfunc.o
 .comment       0x00000000       0x46 build/stm32f4xx_hal_flash_ramfunc.o
 .ARM.attributes
                0x00000000       0x34 build/stm32f4xx_hal_flash_ramfunc.o
 .text          0x00000000        0x0 build/stm32f4xx_hal_gpio.o
 .data          0x00000000        0x0 build/stm32f4xx_hal_gpio.o
 .bss           0x00000000        0x0 build/stm32f4xx_hal_gpio.o
 .text.HAL_GPIO_ReadPin
                0x00000000        0xe build/stm32f4xx_hal_gpio.o
 .text.HAL_GPIO_LockPin
                0x00000000       0x2e build/stm32f4xx_hal_gpio.o
 .text.HAL_GPIO_EXTI_Callback
                0x00000000        0x2 build/stm32f4xx_hal_gpio.o
 .text.HAL_GPIO_EXTI_IRQHandler
                0x00000000       0x1c build/stm32f4xx_hal_gpio.o
 .text          0x00000000        0x0 build/stm32f4xx_hal_dma_ex.o
 .data          0x00000000        0x0 build/stm32f4xx_hal_dma_ex.o
 .bss           0x00000000        0x0 build/stm32f4xx_hal_dma_ex.o
 .text.DMA_MultiBufferSetConfig
                0x00000000       0x24 build/stm32f4xx_hal_dma_ex.o
 .text.HAL_DMAEx_MultiBufferStart
                0x00000000       0x5c build/stm32f4xx_hal_dma_ex.o
 .text.HAL_DMAEx_MultiBufferStart_IT
                0x00000000      0xefc build/stm32f4xx_hal_dma_ex.o
 .text.HAL_DMAEx_ChangeMemory
                0x00000000       0x10 build/stm32f4xx_hal_dma_ex.o
 .debug_info    0x00000000      0x5fd build/stm32f4xx_hal_dma_ex.o
 .debug_abbrev  0x00000000      0x1a7 build/stm32f4xx_hal_dma_ex.o
 .debug_loc     0x00000000      0x506 build/stm32f4xx_hal_dma_ex.o
 .debug_aranges
                0x00000000       0x38 build/stm32f4xx_hal_dma_ex.o
 .debug_ranges  0x00000000       0x28 build/stm32f4xx_hal_dma_ex.o
 .debug_line    0x00000000      0xebf build/stm32f4xx_hal_dma_ex.o
 .debug_str     0x00000000      0x520 build/stm32f4xx_hal_dma_ex.o
 .comment       0x00000000       0x46 build/stm32f4xx_hal_dma_ex.o
 .debug_frame   0x00000000       0x74 build/stm32f4xx_hal_dma_ex.o
 .ARM.attributes
                0x00000000       0x34 build/stm32f4xx_hal_dma_ex.o
 .text          0x00000000        0x0 build/stm32f4xx_hal_dma.o
 .data          0x00000000        0x0 build/stm32f4xx_hal_dma.o
 .bss           0x00000000        0x0 build/stm32f4xx_hal_dma.o
 .text.DMA_SetConfig
                0x00000000       0x2c build/stm32f4xx_hal_dma.o
 .text.DMA_CalcBaseAndBitshift
                0x00000000       0x3c build/stm32f4xx_hal_dma.o
 .text.DMA_CheckFifoParam
                0x00000000       0x8e build/stm32f4xx_hal_dma.o
 .text.HAL_DMA_Init
                0x00000000       0xcc build/stm32f4xx_hal_dma.o
 .text.HAL_DMA_DeInit
                0x00000000       0x64 build/stm32f4xx_hal_dma.o
 .text.HAL_DMA_Start
                0x00000000       0x46 build/stm32f4xx_hal_dma.o
 .text.HAL_DMA_Start_IT
                0x00000000       0x68 build/stm32f4xx_hal_dma.o
 .text.HAL_DMA_Abort
                0x00000000       0x92 build/stm32f4xx_hal_dma.o
 .text.HAL_DMA_Abort_IT
                0x00000000       0x24 build/stm32f4xx_hal_dma.o
 .text.HAL_DMA_PollForTransfer
                0x00000000      0x126 build/stm32f4xx_hal_dma.o
 .text.HAL_DMA_IRQHandler
                0x00000000      0x1dc build/stm32f4xx_hal_dma.o
 .text.HAL_DMA_RegisterCallback
                0x00000000       0x5e build/stm32f4xx_hal_dma.o
 .text.HAL_DMA_UnRegisterCallback
                0x00000000       0x6e build/stm32f4xx_hal_dma.o
 .text.HAL_DMA_GetState
                0x00000000        0x6 build/stm32f4xx_hal_dma.o
 .text.HAL_DMA_GetError
                0x00000000        0x4 build/stm32f4xx_hal_dma.o
 .rodata.flagBitshiftOffset.0
                0x00000000        0x8 build/stm32f4xx_hal_dma.o
 .debug_info    0x00000000      0xbc6 build/stm32f4xx_hal_dma.o
 .debug_abbrev  0x00000000      0x2be build/stm32f4xx_hal_dma.o
 .debug_loc     0x00000000      0xe9a build/stm32f4xx_hal_dma.o
 .debug_aranges
                0x00000000       0x90 build/stm32f4xx_hal_dma.o
 .debug_ranges  0x00000000       0x80 build/stm32f4xx_hal_dma.o
 .debug_line    0x00000000      0xdfa build/stm32f4xx_hal_dma.o
 .debug_str     0x00000000      0x74d build/stm32f4xx_hal_dma.o
 .comment       0x00000000       0x46 build/stm32f4xx_hal_dma.o
 .debug_frame   0x00000000      0x188 build/stm32f4xx_hal_dma.o
 .ARM.attributes
                0x00000000       0x34 build/stm32f4xx_hal_dma.o
 .text          0x00000000        0x0 build/stm32f4xx_hal_pwr.o
 .data          0x00000000        0x0 build/stm32f4xx_hal_pwr.o
 .bss           0x00000000        0x0 build/stm32f4xx_hal_pwr.o
 .text.HAL_PWR_DeInit
                0x00000000       0x18 build/stm32f4xx_hal_pwr.o
 .text.HAL_PWR_EnableBkUpAccess
                0x00000000       0x1c build/stm32f4xx_hal_pwr.o
 .text.HAL_PWR_DisableBkUpAccess
                0x00000000       0x1c build/stm32f4xx_hal_pwr.o
 .text.HAL_PWR_ConfigPVD
                0x00000000       0x84 build/stm32f4xx_hal_pwr.o
 .text.HAL_PWR_EnablePVD
                0x00000000        0xc build/stm32f4xx_hal_pwr.o
 .text.HAL_PWR_DisablePVD
                0x00000000        0xc build/stm32f4xx_hal_pwr.o
 .text.HAL_PWR_EnableWakeUpPin
                0x00000000       0x10 build/stm32f4xx_hal_pwr.o
 .text.HAL_PWR_DisableWakeUpPin
                0x00000000       0x10 build/stm32f4xx_hal_pwr.o
 .text.HAL_PWR_EnterSLEEPMode
                0x00000000       0x24 build/stm32f4xx_hal_pwr.o
 .text.HAL_PWR_EnterSTOPMode
                0x00000000       0x3c build/stm32f4xx_hal_pwr.o
 .text.HAL_PWR_EnterSTANDBYMode
                0x00000000       0x20 build/stm32f4xx_hal_pwr.o
 .text.HAL_PWR_PVDCallback
                0x00000000        0x2 build/stm32f4xx_hal_pwr.o
 .text.HAL_PWR_PVD_IRQHandler
                0x00000000       0x20 build/stm32f4xx_hal_pwr.o
 .text.HAL_PWR_EnableSleepOnExit
                0x00000000       0x10 build/stm32f4xx_hal_pwr.o
 .text.HAL_PWR_DisableSleepOnExit
                0x00000000       0x10 build/stm32f4xx_hal_pwr.o
 .text.HAL_PWR_EnableSEVOnPend
                0x00000000       0x10 build/stm32f4xx_hal_pwr.o
 .text.HAL_PWR_DisableSEVOnPend
                0x00000000       0x10 build/stm32f4xx_hal_pwr.o
 .debug_info    0x00000000      0x822 build/stm32f4xx_hal_pwr.o
 .debug_abbrev  0x00000000      0x1af build/stm32f4xx_hal_pwr.o
 .debug_loc     0x00000000       0x78 build/stm32f4xx_hal_pwr.o
 .debug_aranges
                0x00000000       0xa0 build/stm32f4xx_hal_pwr.o
 .debug_ranges  0x00000000       0x90 build/stm32f4xx_hal_pwr.o
 .debug_line    0x00000000      0x3e0 build/stm32f4xx_hal_pwr.o
 .debug_str     0x00000000      0x52a build/stm32f4xx_hal_pwr.o
 .comment       0x00000000       0x46 build/stm32f4xx_hal_pwr.o
 .debug_frame   0x00000000      0x138 build/stm32f4xx_hal_pwr.o
 .ARM.attributes
                0x00000000       0x34 build/stm32f4xx_hal_pwr.o
 .text          0x00000000        0x0 build/stm32f4xx_hal_pwr_ex.o
 .data          0x00000000        0x0 build/stm32f4xx_hal_pwr_ex.o
 .bss           0x00000000        0x0 build/stm32f4xx_hal_pwr_ex.o
 .text.HAL_PWREx_EnableBkUpReg
                0x00000000       0x38 build/stm32f4xx_hal_pwr_ex.o
 .text.HAL_PWREx_DisableBkUpReg
                0x00000000       0x38 build/stm32f4xx_hal_pwr_ex.o
 .text.HAL_PWREx_EnableFlashPowerDown
                0x00000000        0xc build/stm32f4xx_hal_pwr_ex.o
 .text.HAL_PWREx_DisableFlashPowerDown
                0x00000000        0xc build/stm32f4xx_hal_pwr_ex.o
 .text.HAL_PWREx_GetVoltageRange
                0x00000000       0x10 build/stm32f4xx_hal_pwr_ex.o
 .text.HAL_PWREx_ControlVoltageScaling
                0x00000000       0xc0 build/stm32f4xx_hal_pwr_ex.o
 .text.HAL_PWREx_EnableMainRegulatorLowVoltage
                0x00000000        0xc build/stm32f4xx_hal_pwr_ex.o
 .text.HAL_PWREx_DisableMainRegulatorLowVoltage
                0x00000000        0xc build/stm32f4xx_hal_pwr_ex.o
 .text.HAL_PWREx_EnableLowRegulatorLowVoltage
                0x00000000        0xc build/stm32f4xx_hal_pwr_ex.o
 .text.HAL_PWREx_DisableLowRegulatorLowVoltage
                0x00000000        0xc build/stm32f4xx_hal_pwr_ex.o
 .debug_info    0x00000000      0x57d build/stm32f4xx_hal_pwr_ex.o
 .debug_abbrev  0x00000000      0x1d9 build/stm32f4xx_hal_pwr_ex.o
 .debug_loc     0x00000000      0x18f build/stm32f4xx_hal_pwr_ex.o
 .debug_aranges
                0x00000000       0x68 build/stm32f4xx_hal_pwr_ex.o
 .debug_ranges  0x00000000       0x58 build/stm32f4xx_hal_pwr_ex.o
 .debug_line    0x00000000      0x3ac build/stm32f4xx_hal_pwr_ex.o
 .debug_str     0x00000000      0x48d build/stm32f4xx_hal_pwr_ex.o
 .comment       0x00000000       0x46 build/stm32f4xx_hal_pwr_ex.o
 .debug_frame   0x00000000       0xd0 build/stm32f4xx_hal_pwr_ex.o
 .ARM.attributes
                0x00000000       0x34 build/stm32f4xx_hal_pwr_ex.o
 .text          0x00000000        0x0 build/stm32f4xx_hal_cortex.o
 .data          0x00000000        0x0 build/stm32f4xx_hal_cortex.o
 .bss           0x00000000        0x0 build/stm32f4xx_hal_cortex.o
 .text.__NVIC_GetPriority
                0x00000000       0x24 build/stm32f4xx_hal_cortex.o
 .text.NVIC_DecodePriority
                0x00000000       0x3e build/stm32f4xx_hal_cortex.o
 .text.__NVIC_SystemReset
                0x00000000       0x24 build/stm32f4xx_hal_cortex.o
 .text.HAL_NVIC_SystemReset
                0x00000000        0x6 build/stm32f4xx_hal_cortex.o
 .text.HAL_SYSTICK_Config
                0x00000000       0x28 build/stm32f4xx_hal_cortex.o
 .text.HAL_MPU_Disable
                0x00000000       0x1c build/stm32f4xx_hal_cortex.o
 .text.HAL_MPU_Enable
                0x00000000       0x20 build/stm32f4xx_hal_cortex.o
 .text.HAL_MPU_EnableRegion
                0x00000000       0x18 build/stm32f4xx_hal_cortex.o
 .text.HAL_MPU_DisableRegion
                0x00000000       0x18 build/stm32f4xx_hal_cortex.o
 .text.HAL_MPU_ConfigRegion
                0x00000000       0x58 build/stm32f4xx_hal_cortex.o
 .text.HAL_CORTEX_ClearEvent
                0x00000000        0x6 build/stm32f4xx_hal_cortex.o
 .text.HAL_NVIC_GetPriorityGrouping
                0x00000000       0x10 build/stm32f4xx_hal_cortex.o
 .text.HAL_NVIC_GetPriority
                0x00000000       0x18 build/stm32f4xx_hal_cortex.o
 .text.HAL_NVIC_SetPendingIRQ
                0x00000000       0x1c build/stm32f4xx_hal_cortex.o
 .text.HAL_NVIC_GetPendingIRQ
                0x00000000       0x24 build/stm32f4xx_hal_cortex.o
 .text.HAL_NVIC_ClearPendingIRQ
                0x00000000       0x1c build/stm32f4xx_hal_cortex.o
 .text.HAL_NVIC_GetActive
                0x00000000       0x24 build/stm32f4xx_hal_cortex.o
 .text.HAL_SYSTICK_CLKSourceConfig
                0x00000000       0x20 build/stm32f4xx_hal_cortex.o
 .text.HAL_SYSTICK_Callback
                0x00000000        0x2 build/stm32f4xx_hal_cortex.o
 .text.HAL_SYSTICK_IRQHandler
                0x00000000        0x8 build/stm32f4xx_hal_cortex.o
 .text          0x00000000        0x0 build/stm32f4xx_hal.o
 .data          0x00000000        0x0 build/stm32f4xx_hal.o
 .bss           0x00000000        0x0 build/stm32f4xx_hal.o
 .text.HAL_MspInit
                0x00000000        0x2 build/stm32f4xx_hal.o
 .text.HAL_MspDeInit
                0x00000000        0x2 build/stm32f4xx_hal.o
 .text.HAL_DeInit
                0x00000000       0x40 build/stm32f4xx_hal.o
 .text.HAL_InitTick
                0x00000000       0x4c build/stm32f4xx_hal.o
 .text.HAL_GetTickPrio
                0x00000000        0xc build/stm32f4xx_hal.o
 .text.HAL_SetTickFreq
                0x00000000       0x2c build/stm32f4xx_hal.o
 .text.HAL_GetTickFreq
                0x00000000        0xc build/stm32f4xx_hal.o
 .text.HAL_SuspendTick
                0x00000000        0xe build/stm32f4xx_hal.o
 .text.HAL_ResumeTick
                0x00000000        0xe build/stm32f4xx_hal.o
 .text.HAL_GetHalVersion
                0x00000000        0x8 build/stm32f4xx_hal.o
 .text.HAL_GetREVID
                0x00000000        0xc build/stm32f4xx_hal.o
 .text.HAL_GetDEVID
                0x00000000       0x10 build/stm32f4xx_hal.o
 .text.HAL_DBGMCU_EnableDBGSleepMode
                0x00000000       0x10 build/stm32f4xx_hal.o
 .text.HAL_DBGMCU_DisableDBGSleepMode
                0x00000000       0x10 build/stm32f4xx_hal.o
 .text.HAL_DBGMCU_EnableDBGStopMode
                0x00000000       0x10 build/stm32f4xx_hal.o
 .text.HAL_DBGMCU_DisableDBGStopMode
                0x00000000       0x10 build/stm32f4xx_hal.o
 .text.HAL_DBGMCU_EnableDBGStandbyMode
                0x00000000       0x10 build/stm32f4xx_hal.o
 .text.HAL_DBGMCU_DisableDBGStandbyMode
                0x00000000       0x10 build/stm32f4xx_hal.o
 .text.HAL_EnableCompensationCell
                0x00000000       0x10 build/stm32f4xx_hal.o
 .text.HAL_DisableCompensationCell
                0x00000000       0x10 build/stm32f4xx_hal.o
 .text.HAL_GetUIDw0
                0x00000000        0xc build/stm32f4xx_hal.o
 .text.HAL_GetUIDw1
                0x00000000        0xc build/stm32f4xx_hal.o
 .text.HAL_GetUIDw2
                0x00000000        0xc build/stm32f4xx_hal.o
 .text          0x00000000        0x0 build/stm32f4xx_hal_exti.o
 .data          0x00000000        0x0 build/stm32f4xx_hal_exti.o
 .bss           0x00000000        0x0 build/stm32f4xx_hal_exti.o
 .text.HAL_EXTI_SetConfigLine
                0x00000000       0xd8 build/stm32f4xx_hal_exti.o
 .text.HAL_EXTI_GetConfigLine
                0x00000000       0xa8 build/stm32f4xx_hal_exti.o
 .text.HAL_EXTI_ClearConfigLine
                0x00000000       0x84 build/stm32f4xx_hal_exti.o
 .text.HAL_EXTI_RegisterCallback
                0x00000000        0xe build/stm32f4xx_hal_exti.o
 .text.HAL_EXTI_GetHandle
                0x00000000        0xc build/stm32f4xx_hal_exti.o
 .text.HAL_EXTI_IRQHandler
                0x00000000       0x24 build/stm32f4xx_hal_exti.o
 .text.HAL_EXTI_GetPending
                0x00000000       0x18 build/stm32f4xx_hal_exti.o
 .text.HAL_EXTI_ClearPending
                0x00000000       0x14 build/stm32f4xx_hal_exti.o
 .text.HAL_EXTI_GenerateSWI
                0x00000000       0x14 build/stm32f4xx_hal_exti.o
 .debug_info    0x00000000      0x60b build/stm32f4xx_hal_exti.o
 .debug_abbrev  0x00000000      0x211 build/stm32f4xx_hal_exti.o
 .debug_loc     0x00000000      0x58b build/stm32f4xx_hal_exti.o
 .debug_aranges
                0x00000000       0x60 build/stm32f4xx_hal_exti.o
 .debug_ranges  0x00000000       0x50 build/stm32f4xx_hal_exti.o
 .debug_line    0x00000000      0x5ca build/stm32f4xx_hal_exti.o
 .debug_str     0x00000000      0x3b8 build/stm32f4xx_hal_exti.o
 .comment       0x00000000       0x46 build/stm32f4xx_hal_exti.o
 .debug_frame   0x00000000       0xe8 build/stm32f4xx_hal_exti.o
 .ARM.attributes
                0x00000000       0x34 build/stm32f4xx_hal_exti.o
 .text          0x00000000        0x0 build/stm32f4xx_hal_adc.o
 .data          0x00000000        0x0 build/stm32f4xx_hal_adc.o
 .bss           0x00000000        0x0 build/stm32f4xx_hal_adc.o
 .text.HAL_ADC_MspInit
                0x00000000        0x2 build/stm32f4xx_hal_adc.o
 .text.HAL_ADC_MspDeInit
                0x00000000        0x2 build/stm32f4xx_hal_adc.o
 .text.HAL_ADC_DeInit
                0x00000000       0x3a build/stm32f4xx_hal_adc.o
 .text.HAL_ADC_PollForEvent
                0x00000000       0x7e build/stm32f4xx_hal_adc.o
 .text.HAL_ADC_Start_IT
                0x00000000      0x118 build/stm32f4xx_hal_adc.o
 .text.HAL_ADC_Stop_IT
                0x00000000       0x4c build/stm32f4xx_hal_adc.o
 .text.HAL_ADC_Start_DMA
                0x00000000      0x164 build/stm32f4xx_hal_adc.o
 .text.HAL_ADC_Stop_DMA
                0x00000000       0x76 build/stm32f4xx_hal_adc.o
 .text.HAL_ADC_ConvCpltCallback
                0x00000000        0x2 build/stm32f4xx_hal_adc.o
 .text.HAL_ADC_ConvHalfCpltCallback
                0x00000000        0x2 build/stm32f4xx_hal_adc.o
 .text.ADC_DMAHalfConvCplt
                0x00000000        0xa build/stm32f4xx_hal_adc.o
 .text.HAL_ADC_LevelOutOfWindowCallback
                0x00000000        0x2 build/stm32f4xx_hal_adc.o
 .text.HAL_ADC_ErrorCallback
                0x00000000        0x2 build/stm32f4xx_hal_adc.o
 .text.HAL_ADC_IRQHandler
                0x00000000      0x142 build/stm32f4xx_hal_adc.o
 .text.ADC_DMAError
                0x00000000       0x16 build/stm32f4xx_hal_adc.o
 .text.ADC_DMAConvCplt
                0x00000000       0x72 build/stm32f4xx_hal_adc.o
 .text.HAL_ADC_AnalogWDGConfig
                0x00000000       0x76 build/stm32f4xx_hal_adc.o
 .text.HAL_ADC_GetState
                0x00000000        0x4 build/stm32f4xx_hal_adc.o
 .text.HAL_ADC_GetError
                0x00000000        0x4 build/stm32f4xx_hal_adc.o
 .text          0x00000000        0x0 build/stm32f4xx_hal_adc_ex.o
 .data          0x00000000        0x0 build/stm32f4xx_hal_adc_ex.o
 .bss           0x00000000        0x0 build/stm32f4xx_hal_adc_ex.o
 .text.ADC_MultiModeDMAError
                0x00000000       0x16 build/stm32f4xx_hal_adc_ex.o
 .text.ADC_MultiModeDMAHalfConvCplt
                0x00000000        0xa build/stm32f4xx_hal_adc_ex.o
 .text.ADC_MultiModeDMAConvCplt
                0x00000000       0x62 build/stm32f4xx_hal_adc_ex.o
 .text.HAL_ADCEx_InjectedStart
                0x00000000      0x104 build/stm32f4xx_hal_adc_ex.o
 .text.HAL_ADCEx_InjectedStart_IT
                0x00000000      0x10c build/stm32f4xx_hal_adc_ex.o
 .text.HAL_ADCEx_InjectedStop
                0x00000000       0x62 build/stm32f4xx_hal_adc_ex.o
 .text.HAL_ADCEx_InjectedPollForConversion
                0x00000000       0xac build/stm32f4xx_hal_adc_ex.o
 .text.HAL_ADCEx_InjectedStop_IT
                0x00000000       0x6a build/stm32f4xx_hal_adc_ex.o
 .text.HAL_ADCEx_InjectedGetValue
                0x00000000       0x40 build/stm32f4xx_hal_adc_ex.o
 .text.HAL_ADCEx_MultiModeStart_DMA
                0x00000000      0x130 build/stm32f4xx_hal_adc_ex.o
 .text.HAL_ADCEx_MultiModeStop_DMA
                0x00000000       0x64 build/stm32f4xx_hal_adc_ex.o
 .text.HAL_ADCEx_MultiModeGetValue
                0x00000000        0xc build/stm32f4xx_hal_adc_ex.o
 .text.HAL_ADCEx_InjectedConvCpltCallback
                0x00000000        0x2 build/stm32f4xx_hal_adc_ex.o
 .text.HAL_ADCEx_InjectedConfigChannel
                0x00000000      0x200 build/stm32f4xx_hal_adc_ex.o
 .text.HAL_ADCEx_MultiModeConfigChannel
                0x00000000       0x58 build/stm32f4xx_hal_adc_ex.o
 .debug_info    0x00000000      0xde8 build/stm32f4xx_hal_adc_ex.o
 .debug_abbrev  0x00000000      0x2aa build/stm32f4xx_hal_adc_ex.o
 .debug_loc     0x00000000      0xdad build/stm32f4xx_hal_adc_ex.o
 .debug_aranges
                0x00000000       0x90 build/stm32f4xx_hal_adc_ex.o
 .debug_ranges  0x00000000       0x80 build/stm32f4xx_hal_adc_ex.o
 .debug_line    0x00000000      0xbb9 build/stm32f4xx_hal_adc_ex.o
 .debug_str     0x00000000      0x98d build/stm32f4xx_hal_adc_ex.o
 .comment       0x00000000       0x46 build/stm32f4xx_hal_adc_ex.o
 .debug_frame   0x00000000      0x18c build/stm32f4xx_hal_adc_ex.o
 .ARM.attributes
                0x00000000       0x34 build/stm32f4xx_hal_adc_ex.o
 .text          0x00000000        0x0 build/stm32f4xx_ll_adc.o
 .data          0x00000000        0x0 build/stm32f4xx_ll_adc.o
 .bss           0x00000000        0x0 build/stm32f4xx_ll_adc.o
 .debug_line    0x00000000        0x0 build/stm32f4xx_ll_adc.o
 .debug_str     0x00000000       0xf6 build/stm32f4xx_ll_adc.o
 .comment       0x00000000       0x46 build/stm32f4xx_ll_adc.o
 .ARM.attributes
                0x00000000       0x34 build/stm32f4xx_ll_adc.o
 .text          0x00000000        0x0 build/stm32f4xx_hal_i2c.o
 .data          0x00000000        0x0 build/stm32f4xx_hal_i2c.o
 .bss           0x00000000        0x0 build/stm32f4xx_hal_i2c.o
 .text.I2C_Flush_DR
                0x00000000       0x10 build/stm32f4xx_hal_i2c.o
 .text.I2C_Master_SB
                0x00000000       0xa4 build/stm32f4xx_hal_i2c.o
 .text.I2C_Master_ADD10
                0x00000000       0x2a build/stm32f4xx_hal_i2c.o
 .text.I2C_Master_ADDR
                0x00000000      0x230 build/stm32f4xx_hal_i2c.o
 .text.I2C_SlaveTransmit_BTF
                0x00000000       0x20 build/stm32f4xx_hal_i2c.o
 .text.I2C_SlaveReceive_BTF
                0x00000000       0x20 build/stm32f4xx_hal_i2c.o
 .text.I2C_WaitOnSTOPRequestThroughIT
                0x00000000       0x48 build/stm32f4xx_hal_i2c.o
 .text.I2C_IsAcknowledgeFailed
                0x00000000       0x32 build/stm32f4xx_hal_i2c.o
 .text.I2C_ConvertOtherXferOptions
                0x00000000       0x1e build/stm32f4xx_hal_i2c.o
 .text.I2C_WaitOnFlagUntilTimeout
                0x00000000       0xaa build/stm32f4xx_hal_i2c.o
 .text.I2C_WaitOnMasterAddressFlagUntilTimeout
                0x00000000       0xd6 build/stm32f4xx_hal_i2c.o
 .text.I2C_MasterRequestWrite
                0x00000000       0xb4 build/stm32f4xx_hal_i2c.o
 .text.I2C_MasterRequestRead
                0x00000000      0x120 build/stm32f4xx_hal_i2c.o
 .text.I2C_WaitOnTXEFlagUntilTimeout
                0x00000000       0x5e build/stm32f4xx_hal_i2c.o
 .text.I2C_RequestMemoryWrite
                0x00000000       0xd8 build/stm32f4xx_hal_i2c.o
 .text.I2C_RequestMemoryRead
                0x00000000      0x154 build/stm32f4xx_hal_i2c.o
 .text.I2C_WaitOnBTFFlagUntilTimeout
                0x00000000       0x5e build/stm32f4xx_hal_i2c.o
 .text.I2C_WaitOnRXNEFlagUntilTimeout
                0x00000000       0x78 build/stm32f4xx_hal_i2c.o
 .text.I2C_WaitOnSTOPFlagUntilTimeout
                0x00000000       0x5c build/stm32f4xx_hal_i2c.o
 .text.HAL_I2C_MspInit
                0x00000000        0x2 build/stm32f4xx_hal_i2c.o
 .text.HAL_I2C_MspDeInit
                0x00000000        0x2 build/stm32f4xx_hal_i2c.o
 .text.HAL_I2C_DeInit
                0x00000000       0x32 build/stm32f4xx_hal_i2c.o
 .text.HAL_I2C_Master_Transmit
                0x00000000      0x174 build/stm32f4xx_hal_i2c.o
 .text.HAL_I2C_Master_Receive
                0x00000000      0x2fc build/stm32f4xx_hal_i2c.o
 .text.HAL_I2C_Slave_Transmit
                0x00000000      0x1a0 build/stm32f4xx_hal_i2c.o
 .text.HAL_I2C_Slave_Receive
                0x00000000      0x17c build/stm32f4xx_hal_i2c.o
 .text.HAL_I2C_Master_Transmit_IT
                0x00000000       0xd0 build/stm32f4xx_hal_i2c.o
 .text.HAL_I2C_Master_Receive_IT
                0x00000000       0xdc build/stm32f4xx_hal_i2c.o
 .text.HAL_I2C_Slave_Transmit_IT
                0x00000000       0x8c build/stm32f4xx_hal_i2c.o
 .text.HAL_I2C_Slave_Receive_IT
                0x00000000       0x8c build/stm32f4xx_hal_i2c.o
 .text.HAL_I2C_Master_Transmit_DMA
                0x00000000      0x188 build/stm32f4xx_hal_i2c.o
 .text.HAL_I2C_Master_Receive_DMA
                0x00000000      0x188 build/stm32f4xx_hal_i2c.o
 .text.HAL_I2C_Slave_Transmit_DMA
                0x00000000      0x104 build/stm32f4xx_hal_i2c.o
 .text.HAL_I2C_Slave_Receive_DMA
                0x00000000      0x104 build/stm32f4xx_hal_i2c.o
 .text.HAL_I2C_Mem_Write
                0x00000000      0x160 build/stm32f4xx_hal_i2c.o
 .text.HAL_I2C_Mem_Read
                0x00000000      0x2f8 build/stm32f4xx_hal_i2c.o
 .text.HAL_I2C_Mem_Write_IT
                0x00000000       0xdc build/stm32f4xx_hal_i2c.o
 .text.HAL_I2C_Mem_Read_IT
                0x00000000       0xec build/stm32f4xx_hal_i2c.o
 .text.HAL_I2C_Mem_Write_DMA
                0x00000000      0x1d0 build/stm32f4xx_hal_i2c.o
 .text.HAL_I2C_Mem_Read_DMA
                0x00000000      0x214 build/stm32f4xx_hal_i2c.o
 .text.HAL_I2C_IsDeviceReady
                0x00000000      0x18c build/stm32f4xx_hal_i2c.o
 .text.HAL_I2C_Master_Seq_Transmit_IT
                0x00000000       0xf8 build/stm32f4xx_hal_i2c.o
 .text.HAL_I2C_Master_Seq_Transmit_DMA
                0x00000000      0x1cc build/stm32f4xx_hal_i2c.o
 .text.HAL_I2C_Master_Seq_Receive_IT
                0x00000000      0x148 build/stm32f4xx_hal_i2c.o
 .text.HAL_I2C_Master_Seq_Receive_DMA
                0x00000000      0x23c build/stm32f4xx_hal_i2c.o
 .text.HAL_I2C_Slave_Seq_Transmit_IT
                0x00000000       0x90 build/stm32f4xx_hal_i2c.o
 .text.HAL_I2C_Slave_Seq_Transmit_DMA
                0x00000000      0x198 build/stm32f4xx_hal_i2c.o
 .text.HAL_I2C_Slave_Seq_Receive_IT
                0x00000000       0x90 build/stm32f4xx_hal_i2c.o
 .text.HAL_I2C_Slave_Seq_Receive_DMA
                0x00000000      0x198 build/stm32f4xx_hal_i2c.o
 .text.HAL_I2C_EnableListen_IT
                0x00000000       0x3c build/stm32f4xx_hal_i2c.o
 .text.HAL_I2C_DisableListen_IT
                0x00000000       0x40 build/stm32f4xx_hal_i2c.o
 .text.HAL_I2C_MasterTxCpltCallback
                0x00000000        0x2 build/stm32f4xx_hal_i2c.o
 .text.HAL_I2C_MasterRxCpltCallback
                0x00000000        0x2 build/stm32f4xx_hal_i2c.o
 .text.HAL_I2C_SlaveTxCpltCallback
                0x00000000        0x2 build/stm32f4xx_hal_i2c.o
 .text.I2C_SlaveTransmit_TXE
                0x00000000       0x4c build/stm32f4xx_hal_i2c.o
 .text.HAL_I2C_SlaveRxCpltCallback
                0x00000000        0x2 build/stm32f4xx_hal_i2c.o
 .text.I2C_SlaveReceive_RXNE
                0x00000000       0x4c build/stm32f4xx_hal_i2c.o
 .text.HAL_I2C_AddrCallback
                0x00000000        0x2 build/stm32f4xx_hal_i2c.o
 .text.I2C_Slave_ADDR
                0x00000000       0x5a build/stm32f4xx_hal_i2c.o
 .text.HAL_I2C_ListenCpltCallback
                0x00000000        0x2 build/stm32f4xx_hal_i2c.o
 .text.I2C_Slave_AF
                0x00000000       0xa0 build/stm32f4xx_hal_i2c.o
 .text.HAL_I2C_MemTxCpltCallback
                0x00000000        0x2 build/stm32f4xx_hal_i2c.o
 .text.I2C_MasterTransmit_BTF
                0x00000000       0x9a build/stm32f4xx_hal_i2c.o
 .text.I2C_MemoryTransmit_TXE_BTF
                0x00000000       0xc4 build/stm32f4xx_hal_i2c.o
 .text.I2C_MasterTransmit_TXE
                0x00000000       0xd0 build/stm32f4xx_hal_i2c.o
 .text.HAL_I2C_MemRxCpltCallback
                0x00000000        0x2 build/stm32f4xx_hal_i2c.o
 .text.I2C_MasterReceive_BTF
                0x00000000      0x13e build/stm32f4xx_hal_i2c.o
 .text.HAL_I2C_ErrorCallback
                0x00000000        0x2 build/stm32f4xx_hal_i2c.o
 .text.I2C_DMAError
                0x00000000       0x46 build/stm32f4xx_hal_i2c.o
 .text.I2C_DMAXferCplt
                0x00000000      0x12e build/stm32f4xx_hal_i2c.o
 .text.I2C_MasterReceive_RXNE
                0x00000000      0x102 build/stm32f4xx_hal_i2c.o
 .text.HAL_I2C_AbortCpltCallback
                0x00000000        0x2 build/stm32f4xx_hal_i2c.o
 .text.I2C_DMAAbort
                0x00000000       0xe0 build/stm32f4xx_hal_i2c.o
 .text.I2C_ITError
                0x00000000      0x174 build/stm32f4xx_hal_i2c.o
 .text.HAL_I2C_Master_Abort_IT
                0x00000000       0x68 build/stm32f4xx_hal_i2c.o
 .text.I2C_Slave_STOPF
                0x00000000      0x18c build/stm32f4xx_hal_i2c.o
 .text.HAL_I2C_EV_IRQHandler
                0x00000000      0x19e build/stm32f4xx_hal_i2c.o
 .text.HAL_I2C_ER_IRQHandler
                0x00000000       0xc4 build/stm32f4xx_hal_i2c.o
 .text.HAL_I2C_GetState
                0x00000000        0x6 build/stm32f4xx_hal_i2c.o
 .text.HAL_I2C_GetMode
                0x00000000        0x6 build/stm32f4xx_hal_i2c.o
 .text.HAL_I2C_GetError
                0x00000000        0x4 build/stm32f4xx_hal_i2c.o
 .text          0x00000000        0x0 build/stm32f4xx_hal_i2c_ex.o
 .data          0x00000000        0x0 build/stm32f4xx_hal_i2c_ex.o
 .bss           0x00000000        0x0 build/stm32f4xx_hal_i2c_ex.o
 .text.HAL_I2CEx_ConfigAnalogFilter
                0x00000000       0x42 build/stm32f4xx_hal_i2c_ex.o
 .text.HAL_I2CEx_ConfigDigitalFilter
                0x00000000       0x40 build/stm32f4xx_hal_i2c_ex.o
 .debug_info    0x00000000      0x750 build/stm32f4xx_hal_i2c_ex.o
 .debug_abbrev  0x00000000      0x173 build/stm32f4xx_hal_i2c_ex.o
 .debug_loc     0x00000000       0xf7 build/stm32f4xx_hal_i2c_ex.o
 .debug_aranges
                0x00000000       0x28 build/stm32f4xx_hal_i2c_ex.o
 .debug_ranges  0x00000000       0x18 build/stm32f4xx_hal_i2c_ex.o
 .debug_line    0x00000000      0x258 build/stm32f4xx_hal_i2c_ex.o
 .debug_str     0x00000000      0x72e build/stm32f4xx_hal_i2c_ex.o
 .comment       0x00000000       0x46 build/stm32f4xx_hal_i2c_ex.o
 .debug_frame   0x00000000       0x30 build/stm32f4xx_hal_i2c_ex.o
 .ARM.attributes
                0x00000000       0x34 build/stm32f4xx_hal_i2c_ex.o
 .text          0x00000000        0x0 build/system_stm32f4xx.o
 .data          0x00000000        0x0 build/system_stm32f4xx.o
 .bss           0x00000000        0x0 build/system_stm32f4xx.o
 .text.SystemCoreClockUpdate
                0x00000000       0xa0 build/system_stm32f4xx.o
 .text          0x00000000        0x0 build/croutine.o
 .data          0x00000000        0x0 build/croutine.o
 .bss           0x00000000        0x0 build/croutine.o
 .debug_info    0x00000000       0x72 build/croutine.o
 .debug_abbrev  0x00000000       0x26 build/croutine.o
 .debug_aranges
                0x00000000       0x18 build/croutine.o
 .debug_line    0x00000000       0x53 build/croutine.o
 .debug_str     0x00000000      0x18a build/croutine.o
 .comment       0x00000000       0x46 build/croutine.o
 .ARM.attributes
                0x00000000       0x34 build/croutine.o
 .text          0x00000000        0x0 build/event_groups.o
 .data          0x00000000        0x0 build/event_groups.o
 .bss           0x00000000        0x0 build/event_groups.o
 .text.prvTestWaitCondition
                0x00000000       0x1a build/event_groups.o
 .text.xEventGroupCreateStatic
                0x00000000       0x4a build/event_groups.o
 .text.xEventGroupCreate
                0x00000000       0x1c build/event_groups.o
 .text.xEventGroupWaitBits
                0x00000000      0x10a build/event_groups.o
 .text.xEventGroupClearBits
                0x00000000       0x46 build/event_groups.o
 .text.vEventGroupClearBitsCallback
                0x00000000        0x8 build/event_groups.o
 .text.xEventGroupClearBitsFromISR
                0x00000000       0x14 build/event_groups.o
 .text.xEventGroupGetBitsFromISR
                0x00000000       0x1c build/event_groups.o
 .text.xEventGroupSetBits
                0x00000000       0x8e build/event_groups.o
 .text.xEventGroupSync
                0x00000000       0xd8 build/event_groups.o
 .text.vEventGroupSetBitsCallback
                0x00000000        0x8 build/event_groups.o
 .text.vEventGroupDelete
                0x00000000       0x44 build/event_groups.o
 .text.xEventGroupSetBitsFromISR
                0x00000000       0x14 build/event_groups.o
 .text.uxEventGroupGetNumber
                0x00000000        0xa build/event_groups.o
 .text.vEventGroupSetNumber
                0x00000000        0x4 build/event_groups.o
 .debug_info    0x00000000     0x10c3 build/event_groups.o
 .debug_abbrev  0x00000000      0x38b build/event_groups.o
 .debug_loc     0x00000000      0xe30 build/event_groups.o
 .debug_aranges
                0x00000000       0x90 build/event_groups.o
 .debug_ranges  0x00000000       0xb8 build/event_groups.o
 .debug_line    0x00000000      0x9fd build/event_groups.o
 .debug_str     0x00000000      0x802 build/event_groups.o
 .comment       0x00000000       0x46 build/event_groups.o
 .debug_frame   0x00000000      0x1b8 build/event_groups.o
 .ARM.attributes
                0x00000000       0x34 build/event_groups.o
 .text          0x00000000        0x0 build/list.o
 .data          0x00000000        0x0 build/list.o
 .bss           0x00000000        0x0 build/list.o
 .text          0x00000000        0x0 build/queue.o
 .data          0x00000000        0x0 build/queue.o
 .bss           0x00000000        0x0 build/queue.o
 .text.prvGetDisinheritPriorityAfterTimeout
                0x00000000       0x10 build/queue.o
 .text.xQueueGenericCreate
                0x00000000       0x48 build/queue.o
 .text.xQueueGetMutexHolder
                0x00000000       0x1a build/queue.o
 .text.xQueueGetMutexHolderFromISR
                0x00000000       0x20 build/queue.o
 .text.xQueueCreateCountingSemaphoreStatic
                0x00000000       0x46 build/queue.o
 .text.xQueueCreateCountingSemaphore
                0x00000000       0x3c build/queue.o
 .text.prvInitialiseMutex
                0x00000000       0x18 build/queue.o
 .text.xQueueCreateMutex
                0x00000000       0x16 build/queue.o
 .text.xQueueCreateMutexStatic
                0x00000000       0x1e build/queue.o
 .text.xQueueGiveMutexRecursive
                0x00000000       0x40 build/queue.o
 .text.xQueueGiveFromISR
                0x00000000       0xb2 build/queue.o
 .text.xQueueSemaphoreTake
                0x00000000      0x1a6 build/queue.o
 .text.xQueueTakeMutexRecursive
                0x00000000       0x40 build/queue.o
 .text.xQueuePeek
                0x00000000      0x15e build/queue.o
 .text.xQueueReceiveFromISR
                0x00000000       0xae build/queue.o
 .text.xQueuePeekFromISR
                0x00000000       0x7e build/queue.o
 .text.uxQueueMessagesWaiting
                0x00000000       0x26 build/queue.o
 .text.uxQueueSpacesAvailable
                0x00000000       0x2a build/queue.o
 .text.uxQueueMessagesWaitingFromISR
                0x00000000       0x18 build/queue.o
 .text.uxQueueGetQueueNumber
                0x00000000        0x4 build/queue.o
 .text.vQueueSetQueueNumber
                0x00000000        0x4 build/queue.o
 .text.ucQueueGetQueueType
                0x00000000        0x6 build/queue.o
 .text.xQueueIsQueueEmptyFromISR
                0x00000000       0x20 build/queue.o
 .text.xQueueIsQueueFullFromISR
                0x00000000       0x24 build/queue.o
 .text.pcQueueGetName
                0x00000000       0x28 build/queue.o
 .text.vQueueUnregisterQueue
                0x00000000       0x2c build/queue.o
 .text.vQueueDelete
                0x00000000       0x2c build/queue.o
 .text          0x00000000        0x0 build/stream_buffer.o
 .data          0x00000000        0x0 build/stream_buffer.o
 .bss           0x00000000        0x0 build/stream_buffer.o
 .text.prvBytesInBuffer
                0x00000000       0x12 build/stream_buffer.o
 .text.prvInitialiseNewStreamBuffer
                0x00000000       0x40 build/stream_buffer.o
 .text.prvWriteBytesToBuffer
                0x00000000       0x8e build/stream_buffer.o
 .text.prvWriteMessageToBuffer
                0x00000000       0x44 build/stream_buffer.o
 .text.prvReadBytesFromBuffer
                0x00000000       0x84 build/stream_buffer.o
 .text.prvReadMessageFromBuffer
                0x00000000       0x4c build/stream_buffer.o
 .text.xStreamBufferGenericCreate
                0x00000000       0x74 build/stream_buffer.o
 .text.xStreamBufferGenericCreateStatic
                0x00000000       0xa6 build/stream_buffer.o
 .text.vStreamBufferDelete
                0x00000000       0x2e build/stream_buffer.o
 .text.xStreamBufferReset
                0x00000000       0x4e build/stream_buffer.o
 .text.xStreamBufferSetTriggerLevel
                0x00000000       0x2a build/stream_buffer.o
 .text.xStreamBufferSpacesAvailable
                0x00000000       0x2a build/stream_buffer.o
 .text.xStreamBufferBytesAvailable
                0x00000000       0x1c build/stream_buffer.o
 .text.xStreamBufferSend
                0x00000000      0x108 build/stream_buffer.o
 .text.xStreamBufferSendFromISR
                0x00000000       0xa4 build/stream_buffer.o
 .text.xStreamBufferReceive
                0x00000000       0xea build/stream_buffer.o
 .text.xStreamBufferNextMessageLengthBytes
                0x00000000       0x5c build/stream_buffer.o
 .text.xStreamBufferReceiveFromISR
                0x00000000       0xa2 build/stream_buffer.o
 .text.xStreamBufferIsEmpty
                0x00000000       0x24 build/stream_buffer.o
 .text.xStreamBufferIsFull
                0x00000000       0x38 build/stream_buffer.o
 .text.xStreamBufferSendCompletedFromISR
                0x00000000       0x52 build/stream_buffer.o
 .text.xStreamBufferReceiveCompletedFromISR
                0x00000000       0x52 build/stream_buffer.o
 .text.uxStreamBufferGetStreamBufferNumber
                0x00000000        0x4 build/stream_buffer.o
 .text.vStreamBufferSetStreamBufferNumber
                0x00000000        0x4 build/stream_buffer.o
 .text.ucStreamBufferGetStreamBufferType
                0x00000000        0x8 build/stream_buffer.o
 .debug_info    0x00000000     0x1d7d build/stream_buffer.o
 .debug_abbrev  0x00000000      0x3fa build/stream_buffer.o
 .debug_loc     0x00000000     0x1e47 build/stream_buffer.o
 .debug_aranges
                0x00000000       0xe0 build/stream_buffer.o
 .debug_ranges  0x00000000      0x100 build/stream_buffer.o
 .debug_line    0x00000000     0x132c build/stream_buffer.o
 .debug_str     0x00000000      0x9b1 build/stream_buffer.o
 .comment       0x00000000       0x46 build/stream_buffer.o
 .debug_frame   0x00000000      0x388 build/stream_buffer.o
 .ARM.attributes
                0x00000000       0x34 build/stream_buffer.o
 .text          0x00000000        0x0 build/tasks.o
 .data          0x00000000        0x0 build/tasks.o
 .bss           0x00000000        0x0 build/tasks.o
 .text.prvTaskIsTaskSuspended
                0x00000000       0x40 build/tasks.o
 .text.prvTaskCheckFreeStackSpace
                0x00000000       0x14 build/tasks.o
 .text.vTaskDelete
                0x00000000       0xb8 build/tasks.o
 .text.eTaskGetState
                0x00000000       0x8c build/tasks.o
 .text.uxTaskPriorityGet
                0x00000000       0x20 build/tasks.o
 .text.uxTaskPriorityGetFromISR
                0x00000000       0x30 build/tasks.o
 .text.vTaskPrioritySet
                0x00000000       0xd4 build/tasks.o
 .text.vTaskResume
                0x00000000       0x88 build/tasks.o
 .text.xTaskResumeFromISR
                0x00000000       0xa4 build/tasks.o
 .text.vTaskEndScheduler
                0x00000000       0x24 build/tasks.o
 .text.xTaskGetTickCountFromISR
                0x00000000       0x10 build/tasks.o
 .text.uxTaskGetNumberOfTasks
                0x00000000        0xc build/tasks.o
 .text.pcTaskGetName
                0x00000000       0x28 build/tasks.o
 .text.vTaskDelayUntil
                0x00000000       0xa4 build/tasks.o
 .text.xTaskCatchUpTicks
                0x00000000       0x38 build/tasks.o
 .text.vTaskSuspend
                0x00000000       0xc0 build/tasks.o
 .text.vTaskPlaceOnUnorderedEventList
                0x00000000       0x58 build/tasks.o
 .text.vTaskRemoveFromUnorderedEventList
                0x00000000       0x88 build/tasks.o
 .text.vTaskSetTimeOutState
                0x00000000       0x38 build/tasks.o
 .text.uxTaskGetTaskNumber
                0x00000000        0xa build/tasks.o
 .text.vTaskSetTaskNumber
                0x00000000        0x6 build/tasks.o
 .text.vTaskGetInfo
                0x00000000       0x78 build/tasks.o
 .text.prvListTasksWithinSingleList
                0x00000000       0x5e build/tasks.o
 .text.uxTaskGetSystemState
                0x00000000       0xb0 build/tasks.o
 .text.uxTaskGetStackHighWaterMark
                0x00000000       0x18 build/tasks.o
 .text.xTaskGetCurrentTaskHandle
                0x00000000        0xc build/tasks.o
 .text.xTaskPriorityInherit
                0x00000000       0x98 build/tasks.o
 .text.vTaskPriorityDisinheritAfterTimeout
                0x00000000       0xa0 build/tasks.o
 .text.uxTaskResetEventItemValue
                0x00000000       0x18 build/tasks.o
 .text.pvTaskIncrementMutexHeldCount
                0x00000000       0x1c build/tasks.o
 .text.ulTaskNotifyTake
                0x00000000       0x80 build/tasks.o
 .text.xTaskNotifyWait
                0x00000000       0xa0 build/tasks.o
 .text.xTaskGenericNotify
                0x00000000      0x108 build/tasks.o
 .text.xTaskGenericNotifyFromISR
                0x00000000      0x138 build/tasks.o
 .text.vTaskNotifyGiveFromISR
                0x00000000       0xd4 build/tasks.o
 .text.xTaskNotifyStateClear
                0x00000000       0x30 build/tasks.o
 .text.ulTaskNotifyValueClear
                0x00000000       0x34 build/tasks.o
 .text          0x00000000        0x0 build/timers.o
 .data          0x00000000        0x0 build/timers.o
 .bss           0x00000000        0x0 build/timers.o
 .text.prvInitialiseNewTimer
                0x00000000       0x4c build/timers.o
 .text.xTimerCreate
                0x00000000       0x38 build/timers.o
 .text.xTimerCreateStatic
                0x00000000       0x54 build/timers.o
 .text.xTimerGetTimerDaemonTaskHandle
                0x00000000       0x20 build/timers.o
 .text.xTimerGetPeriod
                0x00000000       0x18 build/timers.o
 .text.vTimerSetReloadMode
                0x00000000       0x40 build/timers.o
 .text.uxTimerGetReloadMode
                0x00000000       0x34 build/timers.o
 .text.xTimerGetExpiryTime
                0x00000000       0x18 build/timers.o
 .text.pcTimerGetName
                0x00000000       0x18 build/timers.o
 .text.xTimerIsTimerActive
                0x00000000       0x34 build/timers.o
 .text.pvTimerGetTimerID
                0x00000000       0x26 build/timers.o
 .text.vTimerSetTimerID
                0x00000000       0x26 build/timers.o
 .text.xTimerPendFunctionCallFromISR
                0x00000000       0x28 build/timers.o
 .text.xTimerPendFunctionCall
                0x00000000       0x40 build/timers.o
 .text.uxTimerGetTimerNumber
                0x00000000        0x4 build/timers.o
 .text.vTimerSetTimerNumber
                0x00000000        0x4 build/timers.o
 .text          0x00000000        0x0 build/cmsis_os2.o
 .data          0x00000000        0x0 build/cmsis_os2.o
 .bss           0x00000000        0x0 build/cmsis_os2.o
 .text.OS_Tick_GetCount
                0x00000000        0xc build/cmsis_os2.o
 .text.OS_Tick_GetOverflow
                0x00000000        0xc build/cmsis_os2.o
 .text.OS_Tick_GetInterval
                0x00000000        0xa build/cmsis_os2.o
 .text.CreateBlock
                0x00000000       0x1c build/cmsis_os2.o
 .text.AllocBlock
                0x00000000        0xc build/cmsis_os2.o
 .text.FreeBlock
                0x00000000        0x8 build/cmsis_os2.o
 .text.TimerCallback
                0x00000000       0x10 build/cmsis_os2.o
 .rodata.osKernelGetInfo.str1.4
                0x00000000       0x11 build/cmsis_os2.o
 .text.osKernelGetInfo
                0x00000000       0x2c build/cmsis_os2.o
 .text.osKernelGetState
                0x00000000       0x24 build/cmsis_os2.o
 .text.osKernelLock
                0x00000000       0x2a build/cmsis_os2.o
 .text.osKernelUnlock
                0x00000000       0x3a build/cmsis_os2.o
 .text.osKernelRestoreLock
                0x00000000       0x4c build/cmsis_os2.o
 .text.osKernelGetTickCount
                0x00000000       0x14 build/cmsis_os2.o
 .text.osKernelGetTickFreq
                0x00000000        0x6 build/cmsis_os2.o
 .text.osKernelGetSysTimerCount
                0x00000000       0x44 build/cmsis_os2.o
 .text.osKernelGetSysTimerFreq
                0x00000000        0xc build/cmsis_os2.o
 .text.osThreadGetName
                0x00000000       0x14 build/cmsis_os2.o
 .text.osThreadGetId
                0x00000000        0x8 build/cmsis_os2.o
 .text.osThreadGetState
                0x00000000       0x3e build/cmsis_os2.o
 .text.osThreadGetStackSpace
                0x00000000       0x1a build/cmsis_os2.o
 .text.osThreadSetPriority
                0x00000000       0x32 build/cmsis_os2.o
 .text.osThreadGetPriority
                0x00000000       0x1c build/cmsis_os2.o
 .text.osThreadYield
                0x00000000       0x24 build/cmsis_os2.o
 .text.osThreadSuspend
                0x00000000       0x1e build/cmsis_os2.o
 .text.osThreadResume
                0x00000000       0x1e build/cmsis_os2.o
 .text.osThreadExit
                0x00000000        0xa build/cmsis_os2.o
 .text.osThreadTerminate
                0x00000000       0x30 build/cmsis_os2.o
 .text.osThreadGetCount
                0x00000000       0x12 build/cmsis_os2.o
 .text.osThreadEnumerate
                0x00000000       0x66 build/cmsis_os2.o
 .text.osThreadFlagsSet
                0x00000000       0x72 build/cmsis_os2.o
 .text.osThreadFlagsClear
                0x00000000       0x56 build/cmsis_os2.o
 .text.osThreadFlagsGet
                0x00000000       0x32 build/cmsis_os2.o
 .text.osThreadFlagsWait
                0x00000000       0xaa build/cmsis_os2.o
 .text.osDelayUntil
                0x00000000       0x30 build/cmsis_os2.o
 .text.osTimerNew
                0x00000000       0xa8 build/cmsis_os2.o
 .text.osTimerGetName
                0x00000000       0x14 build/cmsis_os2.o
 .text.osTimerStart
                0x00000000       0x34 build/cmsis_os2.o
 .text.osTimerStop
                0x00000000       0x44 build/cmsis_os2.o
 .text.osTimerIsRunning
                0x00000000       0x18 build/cmsis_os2.o
 .text.osTimerDelete
                0x00000000       0x44 build/cmsis_os2.o
 .text.osEventFlagsNew
                0x00000000       0x44 build/cmsis_os2.o
 .text.osEventFlagsSet
                0x00000000       0x5a build/cmsis_os2.o
 .text.osEventFlagsClear
                0x00000000       0x40 build/cmsis_os2.o
 .text.osEventFlagsGet
                0x00000000       0x1c build/cmsis_os2.o
 .text.osEventFlagsWait
                0x00000000       0x74 build/cmsis_os2.o
 .text.osEventFlagsDelete
                0x00000000       0x1e build/cmsis_os2.o
 .text.osMutexNew
                0x00000000       0x96 build/cmsis_os2.o
 .text.osMutexAcquire
                0x00000000       0x5e build/cmsis_os2.o
 .text.osMutexRelease
                0x00000000       0x4e build/cmsis_os2.o
 .text.osMutexGetOwner
                0x00000000       0x20 build/cmsis_os2.o
 .text.osMutexDelete
                0x00000000       0x2c build/cmsis_os2.o
 .text.osSemaphoreNew
                0x00000000       0xb2 build/cmsis_os2.o
 .text.osSemaphoreAcquire
                0x00000000       0x68 build/cmsis_os2.o
 .text.osSemaphoreRelease
                0x00000000       0x5e build/cmsis_os2.o
 .text.osSemaphoreGetCount
                0x00000000       0x1a build/cmsis_os2.o
 .text.osSemaphoreDelete
                0x00000000       0x26 build/cmsis_os2.o
 .text.osMessageQueueNew
                0x00000000       0x96 build/cmsis_os2.o
 .text.osMessageQueuePut
                0x00000000       0x84 build/cmsis_os2.o
 .text.osMessageQueueGet
                0x00000000       0x82 build/cmsis_os2.o
 .text.osMessageQueueGetCapacity
                0x00000000        0xa build/cmsis_os2.o
 .text.osMessageQueueGetMsgSize
                0x00000000        0xa build/cmsis_os2.o
 .text.osMessageQueueGetCount
                0x00000000       0x1a build/cmsis_os2.o
 .text.osMessageQueueGetSpace
                0x00000000       0x34 build/cmsis_os2.o
 .text.osMessageQueueReset
                0x00000000       0x20 build/cmsis_os2.o
 .text.osMessageQueueDelete
                0x00000000       0x26 build/cmsis_os2.o
 .text.osMemoryPoolNew
                0x00000000      0x130 build/cmsis_os2.o
 .text.osMemoryPoolGetName
                0x00000000       0x10 build/cmsis_os2.o
 .text.osMemoryPoolAlloc
                0x00000000       0xb0 build/cmsis_os2.o
 .text.osMemoryPoolFree
                0x00000000       0xe0 build/cmsis_os2.o
 .text.osMemoryPoolGetCapacity
                0x00000000       0x1c build/cmsis_os2.o
 .text.osMemoryPoolGetBlockSize
                0x00000000       0x1c build/cmsis_os2.o
 .text.osMemoryPoolGetCount
                0x00000000       0x34 build/cmsis_os2.o
 .text.osMemoryPoolGetSpace
                0x00000000       0x30 build/cmsis_os2.o
 .text.osMemoryPoolDelete
                0x00000000       0x64 build/cmsis_os2.o
 .text          0x00000000        0x0 build/heap_4.o
 .data          0x00000000        0x0 build/heap_4.o
 .bss           0x00000000        0x0 build/heap_4.o
 .text.xPortGetFreeHeapSize
                0x00000000        0xc build/heap_4.o
 .text.xPortGetMinimumEverFreeHeapSize
                0x00000000        0xc build/heap_4.o
 .text.vPortInitialiseBlocks
                0x00000000        0x2 build/heap_4.o
 .text.vPortGetHeapStats
                0x00000000       0x80 build/heap_4.o
 .text          0x00000000        0x0 build/port.o
 .data          0x00000000        0x0 build/port.o
 .bss           0x00000000        0x0 build/port.o
 .text.vPortEndScheduler
                0x00000000       0x24 build/port.o
 .text          0x00000000        0x0 build/usbd_core.o
 .data          0x00000000        0x0 build/usbd_core.o
 .bss           0x00000000        0x0 build/usbd_core.o
 .text.USBD_Stop
                0x00000000       0x1a build/usbd_core.o
 .text.USBD_RunTestMode
                0x00000000        0x4 build/usbd_core.o
 .text          0x00000000        0x0 build/usbd_ctlreq.o
 .data          0x00000000        0x0 build/usbd_ctlreq.o
 .bss           0x00000000        0x0 build/usbd_ctlreq.o
 .text          0x00000000        0x0 build/usbd_ioreq.o
 .data          0x00000000        0x0 build/usbd_ioreq.o
 .bss           0x00000000        0x0 build/usbd_ioreq.o
 .text.USBD_GetRxCount
                0x00000000        0x8 build/usbd_ioreq.o
 .text          0x00000000        0x0 build/usbd_cdc.o
 .data          0x00000000        0x0 build/usbd_cdc.o
 .bss           0x00000000        0x0 build/usbd_cdc.o
 .text          0x00000000       0x14 build/startup_stm32f401xc.o
 .data          0x00000000        0x0 build/startup_stm32f401xc.o
 .bss           0x00000000        0x0 build/startup_stm32f401xc.o
 .text          0x00000000        0x0 c:/Program Files/ARMtoolchain/bin/../lib/gcc/arm-none-eabi/14.2.1/thumb/v7e-m+fp/hard\libc_nano.a(libc_a-exit.o)
 .data          0x00000000        0x0 c:/Program Files/ARMtoolchain/bin/../lib/gcc/arm-none-eabi/14.2.1/thumb/v7e-m+fp/hard\libc_nano.a(libc_a-exit.o)
 .bss           0x00000000        0x0 c:/Program Files/ARMtoolchain/bin/../lib/gcc/arm-none-eabi/14.2.1/thumb/v7e-m+fp/hard\libc_nano.a(libc_a-exit.o)
 .text.exit     0x00000000       0x24 c:/Program Files/ARMtoolchain/bin/../lib/gcc/arm-none-eabi/14.2.1/thumb/v7e-m+fp/hard\libc_nano.a(libc_a-exit.o)
 .debug_frame   0x00000000       0x28 c:/Program Files/ARMtoolchain/bin/../lib/gcc/arm-none-eabi/14.2.1/thumb/v7e-m+fp/hard\libc_nano.a(libc_a-exit.o)
 .ARM.attributes
                0x00000000       0x34 c:/Program Files/ARMtoolchain/bin/../lib/gcc/arm-none-eabi/14.2.1/thumb/v7e-m+fp/hard\libc_nano.a(libc_a-exit.o)
 .text          0x00000000        0x0 c:/Program Files/ARMtoolchain/bin/../lib/gcc/arm-none-eabi/14.2.1/thumb/v7e-m+fp/hard\libc_nano.a(libc_a-findfp.o)
 .data          0x00000000        0x0 c:/Program Files/ARMtoolchain/bin/../lib/gcc/arm-none-eabi/14.2.1/thumb/v7e-m+fp/hard\libc_nano.a(libc_a-findfp.o)
 .bss           0x00000000        0x0 c:/Program Files/ARMtoolchain/bin/../lib/gcc/arm-none-eabi/14.2.1/thumb/v7e-m+fp/hard\libc_nano.a(libc_a-findfp.o)
 .text.__fp_lock
                0x00000000       0x18 c:/Program Files/ARMtoolchain/bin/../lib/gcc/arm-none-eabi/14.2.1/thumb/v7e-m+fp/hard\libc_nano.a(libc_a-findfp.o)
 .text.__fp_unlock
                0x00000000       0x18 c:/Program Files/ARMtoolchain/bin/../lib/gcc/arm-none-eabi/14.2.1/thumb/v7e-m+fp/hard\libc_nano.a(libc_a-findfp.o)
 .text.__sfp    0x00000000       0xa4 c:/Program Files/ARMtoolchain/bin/../lib/gcc/arm-none-eabi/14.2.1/thumb/v7e-m+fp/hard\libc_nano.a(libc_a-findfp.o)
 .text.__fp_lock_all
                0x00000000       0x1c c:/Program Files/ARMtoolchain/bin/../lib/gcc/arm-none-eabi/14.2.1/thumb/v7e-m+fp/hard\libc_nano.a(libc_a-findfp.o)
 .text.__fp_unlock_all
                0x00000000       0x1c c:/Program Files/ARMtoolchain/bin/../lib/gcc/arm-none-eabi/14.2.1/thumb/v7e-m+fp/hard\libc_nano.a(libc_a-findfp.o)
 .text          0x00000000        0x0 c:/Program Files/ARMtoolchain/bin/../lib/gcc/arm-none-eabi/14.2.1/thumb/v7e-m+fp/hard\libc_nano.a(libc_a-fwalk.o)
 .data          0x00000000        0x0 c:/Program Files/ARMtoolchain/bin/../lib/gcc/arm-none-eabi/14.2.1/thumb/v7e-m+fp/hard\libc_nano.a(libc_a-fwalk.o)
 .bss           0x00000000        0x0 c:/Program Files/ARMtoolchain/bin/../lib/gcc/arm-none-eabi/14.2.1/thumb/v7e-m+fp/hard\libc_nano.a(libc_a-fwalk.o)
 .text          0x00000000        0x0 c:/Program Files/ARMtoolchain/bin/../lib/gcc/arm-none-eabi/14.2.1/thumb/v7e-m+fp/hard\libc_nano.a(libc_a-printf.o)
 .data          0x00000000        0x0 c:/Program Files/ARMtoolchain/bin/../lib/gcc/arm-none-eabi/14.2.1/thumb/v7e-m+fp/hard\libc_nano.a(libc_a-printf.o)
 .bss           0x00000000        0x0 c:/Program Files/ARMtoolchain/bin/../lib/gcc/arm-none-eabi/14.2.1/thumb/v7e-m+fp/hard\libc_nano.a(libc_a-printf.o)
 .text._printf_r
                0x00000000       0x1c c:/Program Files/ARMtoolchain/bin/../lib/gcc/arm-none-eabi/14.2.1/thumb/v7e-m+fp/hard\libc_nano.a(libc_a-printf.o)
 .text          0x00000000        0x0 c:/Program Files/ARMtoolchain/bin/../lib/gcc/arm-none-eabi/14.2.1/thumb/v7e-m+fp/hard\libc_nano.a(libc_a-puts.o)
 .data          0x00000000        0x0 c:/Program Files/ARMtoolchain/bin/../lib/gcc/arm-none-eabi/14.2.1/thumb/v7e-m+fp/hard\libc_nano.a(libc_a-puts.o)
 .bss           0x00000000        0x0 c:/Program Files/ARMtoolchain/bin/../lib/gcc/arm-none-eabi/14.2.1/thumb/v7e-m+fp/hard\libc_nano.a(libc_a-puts.o)
 .text          0x00000000        0x0 c:/Program Files/ARMtoolchain/bin/../lib/gcc/arm-none-eabi/14.2.1/thumb/v7e-m+fp/hard\libc_nano.a(libc_a-stdio.o)
 .data          0x00000000        0x0 c:/Program Files/ARMtoolchain/bin/../lib/gcc/arm-none-eabi/14.2.1/thumb/v7e-m+fp/hard\libc_nano.a(libc_a-stdio.o)
 .bss           0x00000000        0x0 c:/Program Files/ARMtoolchain/bin/../lib/gcc/arm-none-eabi/14.2.1/thumb/v7e-m+fp/hard\libc_nano.a(libc_a-stdio.o)
 .text.__seofread
                0x00000000        0x4 c:/Program Files/ARMtoolchain/bin/../lib/gcc/arm-none-eabi/14.2.1/thumb/v7e-m+fp/hard\libc_nano.a(libc_a-stdio.o)
 .text          0x00000000        0x0 c:/Program Files/ARMtoolchain/bin/../lib/gcc/arm-none-eabi/14.2.1/thumb/v7e-m+fp/hard\libc_nano.a(libc_a-wbuf.o)
 .data          0x00000000        0x0 c:/Program Files/ARMtoolchain/bin/../lib/gcc/arm-none-eabi/14.2.1/thumb/v7e-m+fp/hard\libc_nano.a(libc_a-wbuf.o)
 .bss           0x00000000        0x0 c:/Program Files/ARMtoolchain/bin/../lib/gcc/arm-none-eabi/14.2.1/thumb/v7e-m+fp/hard\libc_nano.a(libc_a-wbuf.o)
 .text.__swbuf  0x00000000       0x10 c:/Program Files/ARMtoolchain/bin/../lib/gcc/arm-none-eabi/14.2.1/thumb/v7e-m+fp/hard\libc_nano.a(libc_a-wbuf.o)
 .text          0x00000000        0x0 c:/Program Files/ARMtoolchain/bin/../lib/gcc/arm-none-eabi/14.2.1/thumb/v7e-m+fp/hard\libc_nano.a(libc_a-wsetup.o)
 .data          0x00000000        0x0 c:/Program Files/ARMtoolchain/bin/../lib/gcc/arm-none-eabi/14.2.1/thumb/v7e-m+fp/hard\libc_nano.a(libc_a-wsetup.o)
 .bss           0x00000000        0x0 c:/Program Files/ARMtoolchain/bin/../lib/gcc/arm-none-eabi/14.2.1/thumb/v7e-m+fp/hard\libc_nano.a(libc_a-wsetup.o)
 .text          0x00000000        0x0 c:/Program Files/ARMtoolchain/bin/../lib/gcc/arm-none-eabi/14.2.1/thumb/v7e-m+fp/hard\libc_nano.a(libc_a-memset.o)
 .data          0x00000000        0x0 c:/Program Files/ARMtoolchain/bin/../lib/gcc/arm-none-eabi/14.2.1/thumb/v7e-m+fp/hard\libc_nano.a(libc_a-memset.o)
 .bss           0x00000000        0x0 c:/Program Files/ARMtoolchain/bin/../lib/gcc/arm-none-eabi/14.2.1/thumb/v7e-m+fp/hard\libc_nano.a(libc_a-memset.o)
 .text          0x00000000        0x0 c:/Program Files/ARMtoolchain/bin/../lib/gcc/arm-none-eabi/14.2.1/thumb/v7e-m+fp/hard\libc_nano.a(libc_a-closer.o)
 .data          0x00000000        0x0 c:/Program Files/ARMtoolchain/bin/../lib/gcc/arm-none-eabi/14.2.1/thumb/v7e-m+fp/hard\libc_nano.a(libc_a-closer.o)
 .bss           0x00000000        0x0 c:/Program Files/ARMtoolchain/bin/../lib/gcc/arm-none-eabi/14.2.1/thumb/v7e-m+fp/hard\libc_nano.a(libc_a-closer.o)
 .text          0x00000000        0x0 c:/Program Files/ARMtoolchain/bin/../lib/gcc/arm-none-eabi/14.2.1/thumb/v7e-m+fp/hard\libc_nano.a(libc_a-reent.o)
 .data          0x00000000        0x0 c:/Program Files/ARMtoolchain/bin/../lib/gcc/arm-none-eabi/14.2.1/thumb/v7e-m+fp/hard\libc_nano.a(libc_a-reent.o)
 .bss           0x00000000        0x0 c:/Program Files/ARMtoolchain/bin/../lib/gcc/arm-none-eabi/14.2.1/thumb/v7e-m+fp/hard\libc_nano.a(libc_a-reent.o)
 .text          0x00000000        0x0 c:/Program Files/ARMtoolchain/bin/../lib/gcc/arm-none-eabi/14.2.1/thumb/v7e-m+fp/hard\libc_nano.a(libc_a-impure.o)
 .data          0x00000000        0x0 c:/Program Files/ARMtoolchain/bin/../lib/gcc/arm-none-eabi/14.2.1/thumb/v7e-m+fp/hard\libc_nano.a(libc_a-impure.o)
 .bss           0x00000000        0x0 c:/Program Files/ARMtoolchain/bin/../lib/gcc/arm-none-eabi/14.2.1/thumb/v7e-m+fp/hard\libc_nano.a(libc_a-impure.o)
 .text          0x00000000        0x0 c:/Program Files/ARMtoolchain/bin/../lib/gcc/arm-none-eabi/14.2.1/thumb/v7e-m+fp/hard\libc_nano.a(libc_a-lseekr.o)
 .data          0x00000000        0x0 c:/Program Files/ARMtoolchain/bin/../lib/gcc/arm-none-eabi/14.2.1/thumb/v7e-m+fp/hard\libc_nano.a(libc_a-lseekr.o)
 .bss           0x00000000        0x0 c:/Program Files/ARMtoolchain/bin/../lib/gcc/arm-none-eabi/14.2.1/thumb/v7e-m+fp/hard\libc_nano.a(libc_a-lseekr.o)
 .text          0x00000000        0x0 c:/Program Files/ARMtoolchain/bin/../lib/gcc/arm-none-eabi/14.2.1/thumb/v7e-m+fp/hard\libc_nano.a(libc_a-readr.o)
 .data          0x00000000        0x0 c:/Program Files/ARMtoolchain/bin/../lib/gcc/arm-none-eabi/14.2.1/thumb/v7e-m+fp/hard\libc_nano.a(libc_a-readr.o)
 .bss           0x00000000        0x0 c:/Program Files/ARMtoolchain/bin/../lib/gcc/arm-none-eabi/14.2.1/thumb/v7e-m+fp/hard\libc_nano.a(libc_a-readr.o)
 .text          0x00000000        0x0 c:/Program Files/ARMtoolchain/bin/../lib/gcc/arm-none-eabi/14.2.1/thumb/v7e-m+fp/hard\libc_nano.a(libc_a-writer.o)
 .data          0x00000000        0x0 c:/Program Files/ARMtoolchain/bin/../lib/gcc/arm-none-eabi/14.2.1/thumb/v7e-m+fp/hard\libc_nano.a(libc_a-writer.o)
 .bss           0x00000000        0x0 c:/Program Files/ARMtoolchain/bin/../lib/gcc/arm-none-eabi/14.2.1/thumb/v7e-m+fp/hard\libc_nano.a(libc_a-writer.o)
 .text          0x00000000        0x0 c:/Program Files/ARMtoolchain/bin/../lib/gcc/arm-none-eabi/14.2.1/thumb/v7e-m+fp/hard\libc_nano.a(libc_a-init.o)
 .data          0x00000000        0x0 c:/Program Files/ARMtoolchain/bin/../lib/gcc/arm-none-eabi/14.2.1/thumb/v7e-m+fp/hard\libc_nano.a(libc_a-init.o)
 .bss           0x00000000        0x0 c:/Program Files/ARMtoolchain/bin/../lib/gcc/arm-none-eabi/14.2.1/thumb/v7e-m+fp/hard\libc_nano.a(libc_a-init.o)
 .text          0x00000000        0x0 c:/Program Files/ARMtoolchain/bin/../lib/gcc/arm-none-eabi/14.2.1/thumb/v7e-m+fp/hard\libc_nano.a(libc_a-lock.o)
 .data          0x00000000        0x0 c:/Program Files/ARMtoolchain/bin/../lib/gcc/arm-none-eabi/14.2.1/thumb/v7e-m+fp/hard\libc_nano.a(libc_a-lock.o)
 .bss           0x00000000        0x0 c:/Program Files/ARMtoolchain/bin/../lib/gcc/arm-none-eabi/14.2.1/thumb/v7e-m+fp/hard\libc_nano.a(libc_a-lock.o)
 .text.__retarget_lock_init
                0x00000000        0x2 c:/Program Files/ARMtoolchain/bin/../lib/gcc/arm-none-eabi/14.2.1/thumb/v7e-m+fp/hard\libc_nano.a(libc_a-lock.o)
 .text.__retarget_lock_close
                0x00000000        0x2 c:/Program Files/ARMtoolchain/bin/../lib/gcc/arm-none-eabi/14.2.1/thumb/v7e-m+fp/hard\libc_nano.a(libc_a-lock.o)
 .text.__retarget_lock_close_recursive
                0x00000000        0x2 c:/Program Files/ARMtoolchain/bin/../lib/gcc/arm-none-eabi/14.2.1/thumb/v7e-m+fp/hard\libc_nano.a(libc_a-lock.o)
 .text.__retarget_lock_acquire
                0x00000000        0x2 c:/Program Files/ARMtoolchain/bin/../lib/gcc/arm-none-eabi/14.2.1/thumb/v7e-m+fp/hard\libc_nano.a(libc_a-lock.o)
 .text.__retarget_lock_try_acquire
                0x00000000        0x4 c:/Program Files/ARMtoolchain/bin/../lib/gcc/arm-none-eabi/14.2.1/thumb/v7e-m+fp/hard\libc_nano.a(libc_a-lock.o)
 .text.__retarget_lock_try_acquire_recursive
                0x00000000        0x4 c:/Program Files/ARMtoolchain/bin/../lib/gcc/arm-none-eabi/14.2.1/thumb/v7e-m+fp/hard\libc_nano.a(libc_a-lock.o)
 .text.__retarget_lock_release
                0x00000000        0x2 c:/Program Files/ARMtoolchain/bin/../lib/gcc/arm-none-eabi/14.2.1/thumb/v7e-m+fp/hard\libc_nano.a(libc_a-lock.o)
 .bss.__lock___arc4random_mutex
                0x00000000        0x1 c:/Program Files/ARMtoolchain/bin/../lib/gcc/arm-none-eabi/14.2.1/thumb/v7e-m+fp/hard\libc_nano.a(libc_a-lock.o)
 .bss.__lock___dd_hash_mutex
                0x00000000        0x1 c:/Program Files/ARMtoolchain/bin/../lib/gcc/arm-none-eabi/14.2.1/thumb/v7e-m+fp/hard\libc_nano.a(libc_a-lock.o)
 .bss.__lock___tz_mutex
                0x00000000        0x1 c:/Program Files/ARMtoolchain/bin/../lib/gcc/arm-none-eabi/14.2.1/thumb/v7e-m+fp/hard\libc_nano.a(libc_a-lock.o)
 .bss.__lock___env_recursive_mutex
                0x00000000        0x1 c:/Program Files/ARMtoolchain/bin/../lib/gcc/arm-none-eabi/14.2.1/thumb/v7e-m+fp/hard\libc_nano.a(libc_a-lock.o)
 .bss.__lock___at_quick_exit_mutex
                0x00000000        0x1 c:/Program Files/ARMtoolchain/bin/../lib/gcc/arm-none-eabi/14.2.1/thumb/v7e-m+fp/hard\libc_nano.a(libc_a-lock.o)
 .bss.__lock___atexit_recursive_mutex
                0x00000000        0x1 c:/Program Files/ARMtoolchain/bin/../lib/gcc/arm-none-eabi/14.2.1/thumb/v7e-m+fp/hard\libc_nano.a(libc_a-lock.o)
 .text          0x00000000        0x0 c:/Program Files/ARMtoolchain/bin/../lib/gcc/arm-none-eabi/14.2.1/thumb/v7e-m+fp/hard\libc_nano.a(libc_a-memcpy-stub.o)
 .data          0x00000000        0x0 c:/Program Files/ARMtoolchain/bin/../lib/gcc/arm-none-eabi/14.2.1/thumb/v7e-m+fp/hard\libc_nano.a(libc_a-memcpy-stub.o)
 .bss           0x00000000        0x0 c:/Program Files/ARMtoolchain/bin/../lib/gcc/arm-none-eabi/14.2.1/thumb/v7e-m+fp/hard\libc_nano.a(libc_a-memcpy-stub.o)
 .text          0x00000000        0x0 c:/Program Files/ARMtoolchain/bin/../lib/gcc/arm-none-eabi/14.2.1/thumb/v7e-m+fp/hard\libc_nano.a(libc_a-freer.o)
 .data          0x00000000        0x0 c:/Program Files/ARMtoolchain/bin/../lib/gcc/arm-none-eabi/14.2.1/thumb/v7e-m+fp/hard\libc_nano.a(libc_a-freer.o)
 .bss           0x00000000        0x0 c:/Program Files/ARMtoolchain/bin/../lib/gcc/arm-none-eabi/14.2.1/thumb/v7e-m+fp/hard\libc_nano.a(libc_a-freer.o)
 .text          0x00000000        0x0 c:/Program Files/ARMtoolchain/bin/../lib/gcc/arm-none-eabi/14.2.1/thumb/v7e-m+fp/hard\libc_nano.a(libc_a-mallocr.o)
 .data          0x00000000        0x0 c:/Program Files/ARMtoolchain/bin/../lib/gcc/arm-none-eabi/14.2.1/thumb/v7e-m+fp/hard\libc_nano.a(libc_a-mallocr.o)
 .bss           0x00000000        0x0 c:/Program Files/ARMtoolchain/bin/../lib/gcc/arm-none-eabi/14.2.1/thumb/v7e-m+fp/hard\libc_nano.a(libc_a-mallocr.o)
 .text          0x00000000        0x0 c:/Program Files/ARMtoolchain/bin/../lib/gcc/arm-none-eabi/14.2.1/thumb/v7e-m+fp/hard\libc_nano.a(libc_a-mlock.o)
 .data          0x00000000        0x0 c:/Program Files/ARMtoolchain/bin/../lib/gcc/arm-none-eabi/14.2.1/thumb/v7e-m+fp/hard\libc_nano.a(libc_a-mlock.o)
 .bss           0x00000000        0x0 c:/Program Files/ARMtoolchain/bin/../lib/gcc/arm-none-eabi/14.2.1/thumb/v7e-m+fp/hard\libc_nano.a(libc_a-mlock.o)
 .text          0x00000000        0x0 c:/Program Files/ARMtoolchain/bin/../lib/gcc/arm-none-eabi/14.2.1/thumb/v7e-m+fp/hard\libc_nano.a(libc_a-nano-vfprintf.o)
 .data          0x00000000        0x0 c:/Program Files/ARMtoolchain/bin/../lib/gcc/arm-none-eabi/14.2.1/thumb/v7e-m+fp/hard\libc_nano.a(libc_a-nano-vfprintf.o)
 .bss           0x00000000        0x0 c:/Program Files/ARMtoolchain/bin/../lib/gcc/arm-none-eabi/14.2.1/thumb/v7e-m+fp/hard\libc_nano.a(libc_a-nano-vfprintf.o)
 .text.__sprint_r
                0x00000000       0x1a c:/Program Files/ARMtoolchain/bin/../lib/gcc/arm-none-eabi/14.2.1/thumb/v7e-m+fp/hard\libc_nano.a(libc_a-nano-vfprintf.o)
 .text.vfprintf
                0x00000000       0x14 c:/Program Files/ARMtoolchain/bin/../lib/gcc/arm-none-eabi/14.2.1/thumb/v7e-m+fp/hard\libc_nano.a(libc_a-nano-vfprintf.o)
 .text          0x00000000        0x0 c:/Program Files/ARMtoolchain/bin/../lib/gcc/arm-none-eabi/14.2.1/thumb/v7e-m+fp/hard\libc_nano.a(libc_a-nano-vfprintf_i.o)
 .data          0x00000000        0x0 c:/Program Files/ARMtoolchain/bin/../lib/gcc/arm-none-eabi/14.2.1/thumb/v7e-m+fp/hard\libc_nano.a(libc_a-nano-vfprintf_i.o)
 .bss           0x00000000        0x0 c:/Program Files/ARMtoolchain/bin/../lib/gcc/arm-none-eabi/14.2.1/thumb/v7e-m+fp/hard\libc_nano.a(libc_a-nano-vfprintf_i.o)
 .text          0x00000000        0x0 c:/Program Files/ARMtoolchain/bin/../lib/gcc/arm-none-eabi/14.2.1/thumb/v7e-m+fp/hard\libc_nano.a(libc_a-fflush.o)
 .data          0x00000000        0x0 c:/Program Files/ARMtoolchain/bin/../lib/gcc/arm-none-eabi/14.2.1/thumb/v7e-m+fp/hard\libc_nano.a(libc_a-fflush.o)
 .bss           0x00000000        0x0 c:/Program Files/ARMtoolchain/bin/../lib/gcc/arm-none-eabi/14.2.1/thumb/v7e-m+fp/hard\libc_nano.a(libc_a-fflush.o)
 .text.fflush   0x00000000       0x28 c:/Program Files/ARMtoolchain/bin/../lib/gcc/arm-none-eabi/14.2.1/thumb/v7e-m+fp/hard\libc_nano.a(libc_a-fflush.o)
 .text          0x00000000        0x0 c:/Program Files/ARMtoolchain/bin/../lib/gcc/arm-none-eabi/14.2.1/thumb/v7e-m+fp/hard\libc_nano.a(libc_a-fvwrite.o)
 .data          0x00000000        0x0 c:/Program Files/ARMtoolchain/bin/../lib/gcc/arm-none-eabi/14.2.1/thumb/v7e-m+fp/hard\libc_nano.a(libc_a-fvwrite.o)
 .bss           0x00000000        0x0 c:/Program Files/ARMtoolchain/bin/../lib/gcc/arm-none-eabi/14.2.1/thumb/v7e-m+fp/hard\libc_nano.a(libc_a-fvwrite.o)
 .text.__sfvwrite_r
                0x00000000      0x2a4 c:/Program Files/ARMtoolchain/bin/../lib/gcc/arm-none-eabi/14.2.1/thumb/v7e-m+fp/hard\libc_nano.a(libc_a-fvwrite.o)
 .debug_frame   0x00000000       0x3c c:/Program Files/ARMtoolchain/bin/../lib/gcc/arm-none-eabi/14.2.1/thumb/v7e-m+fp/hard\libc_nano.a(libc_a-fvwrite.o)
 .ARM.attributes
                0x00000000       0x34 c:/Program Files/ARMtoolchain/bin/../lib/gcc/arm-none-eabi/14.2.1/thumb/v7e-m+fp/hard\libc_nano.a(libc_a-fvwrite.o)
 .text          0x00000000        0x0 c:/Program Files/ARMtoolchain/bin/../lib/gcc/arm-none-eabi/14.2.1/thumb/v7e-m+fp/hard\libc_nano.a(libc_a-makebuf.o)
 .data          0x00000000        0x0 c:/Program Files/ARMtoolchain/bin/../lib/gcc/arm-none-eabi/14.2.1/thumb/v7e-m+fp/hard\libc_nano.a(libc_a-makebuf.o)
 .bss           0x00000000        0x0 c:/Program Files/ARMtoolchain/bin/../lib/gcc/arm-none-eabi/14.2.1/thumb/v7e-m+fp/hard\libc_nano.a(libc_a-makebuf.o)
 .text          0x00000000        0x0 c:/Program Files/ARMtoolchain/bin/../lib/gcc/arm-none-eabi/14.2.1/thumb/v7e-m+fp/hard\libc_nano.a(libc_a-memmove.o)
 .data          0x00000000        0x0 c:/Program Files/ARMtoolchain/bin/../lib/gcc/arm-none-eabi/14.2.1/thumb/v7e-m+fp/hard\libc_nano.a(libc_a-memmove.o)
 .bss           0x00000000        0x0 c:/Program Files/ARMtoolchain/bin/../lib/gcc/arm-none-eabi/14.2.1/thumb/v7e-m+fp/hard\libc_nano.a(libc_a-memmove.o)
 .text.memmove  0x00000000       0x32 c:/Program Files/ARMtoolchain/bin/../lib/gcc/arm-none-eabi/14.2.1/thumb/v7e-m+fp/hard\libc_nano.a(libc_a-memmove.o)
 .debug_frame   0x00000000       0x28 c:/Program Files/ARMtoolchain/bin/../lib/gcc/arm-none-eabi/14.2.1/thumb/v7e-m+fp/hard\libc_nano.a(libc_a-memmove.o)
 .ARM.attributes
                0x00000000       0x34 c:/Program Files/ARMtoolchain/bin/../lib/gcc/arm-none-eabi/14.2.1/thumb/v7e-m+fp/hard\libc_nano.a(libc_a-memmove.o)
 .text          0x00000000        0x0 c:/Program Files/ARMtoolchain/bin/../lib/gcc/arm-none-eabi/14.2.1/thumb/v7e-m+fp/hard\libc_nano.a(libc_a-fstatr.o)
 .data          0x00000000        0x0 c:/Program Files/ARMtoolchain/bin/../lib/gcc/arm-none-eabi/14.2.1/thumb/v7e-m+fp/hard\libc_nano.a(libc_a-fstatr.o)
 .bss           0x00000000        0x0 c:/Program Files/ARMtoolchain/bin/../lib/gcc/arm-none-eabi/14.2.1/thumb/v7e-m+fp/hard\libc_nano.a(libc_a-fstatr.o)
 .text          0x00000000        0x0 c:/Program Files/ARMtoolchain/bin/../lib/gcc/arm-none-eabi/14.2.1/thumb/v7e-m+fp/hard\libc_nano.a(libc_a-isattyr.o)
 .data          0x00000000        0x0 c:/Program Files/ARMtoolchain/bin/../lib/gcc/arm-none-eabi/14.2.1/thumb/v7e-m+fp/hard\libc_nano.a(libc_a-isattyr.o)
 .bss           0x00000000        0x0 c:/Program Files/ARMtoolchain/bin/../lib/gcc/arm-none-eabi/14.2.1/thumb/v7e-m+fp/hard\libc_nano.a(libc_a-isattyr.o)
 .text          0x00000000        0x0 c:/Program Files/ARMtoolchain/bin/../lib/gcc/arm-none-eabi/14.2.1/thumb/v7e-m+fp/hard\libc_nano.a(libc_a-sbrkr.o)
 .data          0x00000000        0x0 c:/Program Files/ARMtoolchain/bin/../lib/gcc/arm-none-eabi/14.2.1/thumb/v7e-m+fp/hard\libc_nano.a(libc_a-sbrkr.o)
 .bss           0x00000000        0x0 c:/Program Files/ARMtoolchain/bin/../lib/gcc/arm-none-eabi/14.2.1/thumb/v7e-m+fp/hard\libc_nano.a(libc_a-sbrkr.o)
 .data          0x00000000        0x0 c:/Program Files/ARMtoolchain/bin/../lib/gcc/arm-none-eabi/14.2.1/thumb/v7e-m+fp/hard\libc_nano.a(libc_a-memchr.o)
 .bss           0x00000000        0x0 c:/Program Files/ARMtoolchain/bin/../lib/gcc/arm-none-eabi/14.2.1/thumb/v7e-m+fp/hard\libc_nano.a(libc_a-memchr.o)
 .ARM.extab     0x00000000        0x0 c:/Program Files/ARMtoolchain/bin/../lib/gcc/arm-none-eabi/14.2.1/thumb/v7e-m+fp/hard\libc_nano.a(libc_a-memchr.o)
 .text          0x00000000        0x0 c:/Program Files/ARMtoolchain/bin/../lib/gcc/arm-none-eabi/14.2.1/thumb/v7e-m+fp/hard\libc_nano.a(libc_a-reallocr.o)
 .data          0x00000000        0x0 c:/Program Files/ARMtoolchain/bin/../lib/gcc/arm-none-eabi/14.2.1/thumb/v7e-m+fp/hard\libc_nano.a(libc_a-reallocr.o)
 .bss           0x00000000        0x0 c:/Program Files/ARMtoolchain/bin/../lib/gcc/arm-none-eabi/14.2.1/thumb/v7e-m+fp/hard\libc_nano.a(libc_a-reallocr.o)
 .text._realloc_r
                0x00000000       0x5c c:/Program Files/ARMtoolchain/bin/../lib/gcc/arm-none-eabi/14.2.1/thumb/v7e-m+fp/hard\libc_nano.a(libc_a-reallocr.o)
 .debug_frame   0x00000000       0x3c c:/Program Files/ARMtoolchain/bin/../lib/gcc/arm-none-eabi/14.2.1/thumb/v7e-m+fp/hard\libc_nano.a(libc_a-reallocr.o)
 .ARM.attributes
                0x00000000       0x34 c:/Program Files/ARMtoolchain/bin/../lib/gcc/arm-none-eabi/14.2.1/thumb/v7e-m+fp/hard\libc_nano.a(libc_a-reallocr.o)
 .text          0x00000000        0x0 c:/Program Files/ARMtoolchain/bin/../lib/gcc/arm-none-eabi/14.2.1/thumb/v7e-m+fp/hard\libc_nano.a(libc_a-msizer.o)
 .data          0x00000000        0x0 c:/Program Files/ARMtoolchain/bin/../lib/gcc/arm-none-eabi/14.2.1/thumb/v7e-m+fp/hard\libc_nano.a(libc_a-msizer.o)
 .bss           0x00000000        0x0 c:/Program Files/ARMtoolchain/bin/../lib/gcc/arm-none-eabi/14.2.1/thumb/v7e-m+fp/hard\libc_nano.a(libc_a-msizer.o)
 .text._malloc_usable_size_r
                0x00000000       0x10 c:/Program Files/ARMtoolchain/bin/../lib/gcc/arm-none-eabi/14.2.1/thumb/v7e-m+fp/hard\libc_nano.a(libc_a-msizer.o)
 .debug_frame   0x00000000       0x20 c:/Program Files/ARMtoolchain/bin/../lib/gcc/arm-none-eabi/14.2.1/thumb/v7e-m+fp/hard\libc_nano.a(libc_a-msizer.o)
 .ARM.attributes
                0x00000000       0x34 c:/Program Files/ARMtoolchain/bin/../lib/gcc/arm-none-eabi/14.2.1/thumb/v7e-m+fp/hard\libc_nano.a(libc_a-msizer.o)
 .text          0x00000000        0x0 c:/Program Files/ARMtoolchain/bin/../lib/gcc/arm-none-eabi/14.2.1/thumb/v7e-m+fp/hard\libm.a(libm_a-w_log.o)
 .data          0x00000000        0x0 c:/Program Files/ARMtoolchain/bin/../lib/gcc/arm-none-eabi/14.2.1/thumb/v7e-m+fp/hard\libm.a(libm_a-w_log.o)
 .bss           0x00000000        0x0 c:/Program Files/ARMtoolchain/bin/../lib/gcc/arm-none-eabi/14.2.1/thumb/v7e-m+fp/hard\libm.a(libm_a-w_log.o)
 .text          0x00000000        0x0 c:/Program Files/ARMtoolchain/bin/../lib/gcc/arm-none-eabi/14.2.1/thumb/v7e-m+fp/hard\libm.a(libm_a-s_nan.o)
 .data          0x00000000        0x0 c:/Program Files/ARMtoolchain/bin/../lib/gcc/arm-none-eabi/14.2.1/thumb/v7e-m+fp/hard\libm.a(libm_a-s_nan.o)
 .bss           0x00000000        0x0 c:/Program Files/ARMtoolchain/bin/../lib/gcc/arm-none-eabi/14.2.1/thumb/v7e-m+fp/hard\libm.a(libm_a-s_nan.o)
 .text          0x00000000        0x0 c:/Program Files/ARMtoolchain/bin/../lib/gcc/arm-none-eabi/14.2.1/thumb/v7e-m+fp/hard\libm.a(libm_a-s_round.o)
 .data          0x00000000        0x0 c:/Program Files/ARMtoolchain/bin/../lib/gcc/arm-none-eabi/14.2.1/thumb/v7e-m+fp/hard\libm.a(libm_a-s_round.o)
 .bss           0x00000000        0x0 c:/Program Files/ARMtoolchain/bin/../lib/gcc/arm-none-eabi/14.2.1/thumb/v7e-m+fp/hard\libm.a(libm_a-s_round.o)
 .text          0x00000000        0x0 c:/Program Files/ARMtoolchain/bin/../lib/gcc/arm-none-eabi/14.2.1/thumb/v7e-m+fp/hard\libm.a(libm_a-e_log.o)
 .data          0x00000000        0x0 c:/Program Files/ARMtoolchain/bin/../lib/gcc/arm-none-eabi/14.2.1/thumb/v7e-m+fp/hard\libm.a(libm_a-e_log.o)
 .bss           0x00000000        0x0 c:/Program Files/ARMtoolchain/bin/../lib/gcc/arm-none-eabi/14.2.1/thumb/v7e-m+fp/hard\libm.a(libm_a-e_log.o)
 .text          0x00000000        0x0 c:/Program Files/ARMtoolchain/bin/../lib/gcc/arm-none-eabi/14.2.1/thumb/v7e-m+fp/hard\libnosys.a(close.o)
 .data          0x00000000        0x0 c:/Program Files/ARMtoolchain/bin/../lib/gcc/arm-none-eabi/14.2.1/thumb/v7e-m+fp/hard\libnosys.a(close.o)
 .bss           0x00000000        0x0 c:/Program Files/ARMtoolchain/bin/../lib/gcc/arm-none-eabi/14.2.1/thumb/v7e-m+fp/hard\libnosys.a(close.o)
 .gnu.warning._close
                0x00000000        0x0 c:/Program Files/ARMtoolchain/bin/../lib/gcc/arm-none-eabi/14.2.1/thumb/v7e-m+fp/hard\libnosys.a(close.o)
 .text          0x00000000        0x0 c:/Program Files/ARMtoolchain/bin/../lib/gcc/arm-none-eabi/14.2.1/thumb/v7e-m+fp/hard\libnosys.a(fstat.o)
 .data          0x00000000        0x0 c:/Program Files/ARMtoolchain/bin/../lib/gcc/arm-none-eabi/14.2.1/thumb/v7e-m+fp/hard\libnosys.a(fstat.o)
 .bss           0x00000000        0x0 c:/Program Files/ARMtoolchain/bin/../lib/gcc/arm-none-eabi/14.2.1/thumb/v7e-m+fp/hard\libnosys.a(fstat.o)
 .gnu.warning._fstat
                0x00000000        0x0 c:/Program Files/ARMtoolchain/bin/../lib/gcc/arm-none-eabi/14.2.1/thumb/v7e-m+fp/hard\libnosys.a(fstat.o)
 .text          0x00000000        0x0 c:/Program Files/ARMtoolchain/bin/../lib/gcc/arm-none-eabi/14.2.1/thumb/v7e-m+fp/hard\libnosys.a(isatty.o)
 .data          0x00000000        0x0 c:/Program Files/ARMtoolchain/bin/../lib/gcc/arm-none-eabi/14.2.1/thumb/v7e-m+fp/hard\libnosys.a(isatty.o)
 .bss           0x00000000        0x0 c:/Program Files/ARMtoolchain/bin/../lib/gcc/arm-none-eabi/14.2.1/thumb/v7e-m+fp/hard\libnosys.a(isatty.o)
 .gnu.warning._isatty
                0x00000000        0x0 c:/Program Files/ARMtoolchain/bin/../lib/gcc/arm-none-eabi/14.2.1/thumb/v7e-m+fp/hard\libnosys.a(isatty.o)
 .text          0x00000000        0x0 c:/Program Files/ARMtoolchain/bin/../lib/gcc/arm-none-eabi/14.2.1/thumb/v7e-m+fp/hard\libnosys.a(lseek.o)
 .data          0x00000000        0x0 c:/Program Files/ARMtoolchain/bin/../lib/gcc/arm-none-eabi/14.2.1/thumb/v7e-m+fp/hard\libnosys.a(lseek.o)
 .bss           0x00000000        0x0 c:/Program Files/ARMtoolchain/bin/../lib/gcc/arm-none-eabi/14.2.1/thumb/v7e-m+fp/hard\libnosys.a(lseek.o)
 .gnu.warning._lseek
                0x00000000        0x0 c:/Program Files/ARMtoolchain/bin/../lib/gcc/arm-none-eabi/14.2.1/thumb/v7e-m+fp/hard\libnosys.a(lseek.o)
 .text          0x00000000        0x0 c:/Program Files/ARMtoolchain/bin/../lib/gcc/arm-none-eabi/14.2.1/thumb/v7e-m+fp/hard\libnosys.a(read.o)
 .data          0x00000000        0x0 c:/Program Files/ARMtoolchain/bin/../lib/gcc/arm-none-eabi/14.2.1/thumb/v7e-m+fp/hard\libnosys.a(read.o)
 .bss           0x00000000        0x0 c:/Program Files/ARMtoolchain/bin/../lib/gcc/arm-none-eabi/14.2.1/thumb/v7e-m+fp/hard\libnosys.a(read.o)
 .gnu.warning._read
                0x00000000        0x0 c:/Program Files/ARMtoolchain/bin/../lib/gcc/arm-none-eabi/14.2.1/thumb/v7e-m+fp/hard\libnosys.a(read.o)
 .text          0x00000000        0x0 c:/Program Files/ARMtoolchain/bin/../lib/gcc/arm-none-eabi/14.2.1/thumb/v7e-m+fp/hard\libnosys.a(sbrk.o)
 .data          0x00000000        0x0 c:/Program Files/ARMtoolchain/bin/../lib/gcc/arm-none-eabi/14.2.1/thumb/v7e-m+fp/hard\libnosys.a(sbrk.o)
 .bss           0x00000000        0x0 c:/Program Files/ARMtoolchain/bin/../lib/gcc/arm-none-eabi/14.2.1/thumb/v7e-m+fp/hard\libnosys.a(sbrk.o)
 .text          0x00000000        0x0 c:/Program Files/ARMtoolchain/bin/../lib/gcc/arm-none-eabi/14.2.1/thumb/v7e-m+fp/hard\libnosys.a(_exit.o)
 .data          0x00000000        0x0 c:/Program Files/ARMtoolchain/bin/../lib/gcc/arm-none-eabi/14.2.1/thumb/v7e-m+fp/hard\libnosys.a(_exit.o)
 .bss           0x00000000        0x0 c:/Program Files/ARMtoolchain/bin/../lib/gcc/arm-none-eabi/14.2.1/thumb/v7e-m+fp/hard\libnosys.a(_exit.o)
 .text._exit    0x00000000        0x4 c:/Program Files/ARMtoolchain/bin/../lib/gcc/arm-none-eabi/14.2.1/thumb/v7e-m+fp/hard\libnosys.a(_exit.o)
 .debug_frame   0x00000000       0x20 c:/Program Files/ARMtoolchain/bin/../lib/gcc/arm-none-eabi/14.2.1/thumb/v7e-m+fp/hard\libnosys.a(_exit.o)
 .ARM.attributes
                0x00000000       0x34 c:/Program Files/ARMtoolchain/bin/../lib/gcc/arm-none-eabi/14.2.1/thumb/v7e-m+fp/hard\libnosys.a(_exit.o)
 .text          0x00000000      0x254 c:/Program Files/ARMtoolchain/bin/../lib/gcc/arm-none-eabi/14.2.1/thumb/v7e-m+fp/hard\libgcc.a(_arm_muldf3.o)
 .data          0x00000000        0x0 c:/Program Files/ARMtoolchain/bin/../lib/gcc/arm-none-eabi/14.2.1/thumb/v7e-m+fp/hard\libgcc.a(_arm_muldf3.o)
 .bss           0x00000000        0x0 c:/Program Files/ARMtoolchain/bin/../lib/gcc/arm-none-eabi/14.2.1/thumb/v7e-m+fp/hard\libgcc.a(_arm_muldf3.o)
 .debug_line_str
                0x00000000       0xce c:/Program Files/ARMtoolchain/bin/../lib/gcc/arm-none-eabi/14.2.1/thumb/v7e-m+fp/hard\libgcc.a(_arm_muldf3.o)
 .debug_frame   0x00000000       0x30 c:/Program Files/ARMtoolchain/bin/../lib/gcc/arm-none-eabi/14.2.1/thumb/v7e-m+fp/hard\libgcc.a(_arm_muldf3.o)
 .ARM.attributes
                0x00000000       0x22 c:/Program Files/ARMtoolchain/bin/../lib/gcc/arm-none-eabi/14.2.1/thumb/v7e-m+fp/hard\libgcc.a(_arm_muldf3.o)
 .data          0x00000000        0x0 c:/Program Files/ARMtoolchain/bin/../lib/gcc/arm-none-eabi/14.2.1/thumb/v7e-m+fp/hard\libgcc.a(_arm_addsubdf3.o)
 .bss           0x00000000        0x0 c:/Program Files/ARMtoolchain/bin/../lib/gcc/arm-none-eabi/14.2.1/thumb/v7e-m+fp/hard\libgcc.a(_arm_addsubdf3.o)
 .data          0x00000000        0x0 c:/Program Files/ARMtoolchain/bin/../lib/gcc/arm-none-eabi/14.2.1/thumb/v7e-m+fp/hard\libgcc.a(_arm_muldivdf3.o)
 .bss           0x00000000        0x0 c:/Program Files/ARMtoolchain/bin/../lib/gcc/arm-none-eabi/14.2.1/thumb/v7e-m+fp/hard\libgcc.a(_arm_muldivdf3.o)
 .data          0x00000000        0x0 c:/Program Files/ARMtoolchain/bin/../lib/gcc/arm-none-eabi/14.2.1/thumb/v7e-m+fp/hard\libgcc.a(_arm_cmpdf2.o)
 .bss           0x00000000        0x0 c:/Program Files/ARMtoolchain/bin/../lib/gcc/arm-none-eabi/14.2.1/thumb/v7e-m+fp/hard\libgcc.a(_arm_cmpdf2.o)
 .data          0x00000000        0x0 c:/Program Files/ARMtoolchain/bin/../lib/gcc/arm-none-eabi/14.2.1/thumb/v7e-m+fp/hard\libgcc.a(_arm_unorddf2.o)
 .bss           0x00000000        0x0 c:/Program Files/ARMtoolchain/bin/../lib/gcc/arm-none-eabi/14.2.1/thumb/v7e-m+fp/hard\libgcc.a(_arm_unorddf2.o)
 .data          0x00000000        0x0 c:/Program Files/ARMtoolchain/bin/../lib/gcc/arm-none-eabi/14.2.1/thumb/v7e-m+fp/hard\libgcc.a(_arm_fixunsdfsi.o)
 .bss           0x00000000        0x0 c:/Program Files/ARMtoolchain/bin/../lib/gcc/arm-none-eabi/14.2.1/thumb/v7e-m+fp/hard\libgcc.a(_arm_fixunsdfsi.o)
 .data          0x00000000        0x0 c:/Program Files/ARMtoolchain/bin/../lib/gcc/arm-none-eabi/14.2.1/thumb/v7e-m+fp/hard\libgcc.a(_aeabi_uldivmod.o)
 .bss           0x00000000        0x0 c:/Program Files/ARMtoolchain/bin/../lib/gcc/arm-none-eabi/14.2.1/thumb/v7e-m+fp/hard\libgcc.a(_aeabi_uldivmod.o)
 .text          0x00000000        0x0 c:/Program Files/ARMtoolchain/bin/../lib/gcc/arm-none-eabi/14.2.1/thumb/v7e-m+fp/hard\libgcc.a(_udivmoddi4.o)
 .data          0x00000000        0x0 c:/Program Files/ARMtoolchain/bin/../lib/gcc/arm-none-eabi/14.2.1/thumb/v7e-m+fp/hard\libgcc.a(_udivmoddi4.o)
 .bss           0x00000000        0x0 c:/Program Files/ARMtoolchain/bin/../lib/gcc/arm-none-eabi/14.2.1/thumb/v7e-m+fp/hard\libgcc.a(_udivmoddi4.o)
 .ARM.extab.text.__udivmoddi4
                0x00000000        0x0 c:/Program Files/ARMtoolchain/bin/../lib/gcc/arm-none-eabi/14.2.1/thumb/v7e-m+fp/hard\libgcc.a(_udivmoddi4.o)
 .data          0x00000000        0x0 c:/Program Files/ARMtoolchain/bin/../lib/gcc/arm-none-eabi/14.2.1/thumb/v7e-m+fp/hard\libgcc.a(_dvmd_tls.o)
 .bss           0x00000000        0x0 c:/Program Files/ARMtoolchain/bin/../lib/gcc/arm-none-eabi/14.2.1/thumb/v7e-m+fp/hard\libgcc.a(_dvmd_tls.o)
 .text          0x00000000        0x0 c:/Program Files/ARMtoolchain/bin/../lib/gcc/arm-none-eabi/14.2.1/thumb/v7e-m+fp/hard\libc_nano.a(libc_a-errno.o)
 .data          0x00000000        0x0 c:/Program Files/ARMtoolchain/bin/../lib/gcc/arm-none-eabi/14.2.1/thumb/v7e-m+fp/hard\libc_nano.a(libc_a-errno.o)
 .bss           0x00000000        0x0 c:/Program Files/ARMtoolchain/bin/../lib/gcc/arm-none-eabi/14.2.1/thumb/v7e-m+fp/hard\libc_nano.a(libc_a-errno.o)
 .text          0x00000000        0x0 c:/Program Files/ARMtoolchain/bin/../lib/gcc/arm-none-eabi/14.2.1/thumb/v7e-m+fp/hard/crtend.o
 .data          0x00000000        0x0 c:/Program Files/ARMtoolchain/bin/../lib/gcc/arm-none-eabi/14.2.1/thumb/v7e-m+fp/hard/crtend.o
 .bss           0x00000000        0x0 c:/Program Files/ARMtoolchain/bin/../lib/gcc/arm-none-eabi/14.2.1/thumb/v7e-m+fp/hard/crtend.o
 .rodata.all_implied_fbits
                0x00000000       0x24 c:/Program Files/ARMtoolchain/bin/../lib/gcc/arm-none-eabi/14.2.1/thumb/v7e-m+fp/hard/crtend.o
 .eh_frame      0x00000000        0x4 c:/Program Files/ARMtoolchain/bin/../lib/gcc/arm-none-eabi/14.2.1/thumb/v7e-m+fp/hard/crtend.o
 .text          0x00000000        0x0 c:/Program Files/ARMtoolchain/bin/../lib/gcc/arm-none-eabi/14.2.1/thumb/v7e-m+fp/hard/crtn.o
 .data          0x00000000        0x0 c:/Program Files/ARMtoolchain/bin/../lib/gcc/arm-none-eabi/14.2.1/thumb/v7e-m+fp/hard/crtn.o
 .bss           0x00000000        0x0 c:/Program Files/ARMtoolchain/bin/../lib/gcc/arm-none-eabi/14.2.1/thumb/v7e-m+fp/hard/crtn.o

Memory Configuration

Name             Origin             Length             Attributes
RAM              0x20000000         0x00010000         xrw
FLASH            0x08000000         0x00040000         xr
*default*        0x00000000         0xffffffff

Linker script and memory map

LOAD c:/Program Files/ARMtoolchain/bin/../lib/gcc/arm-none-eabi/14.2.1/thumb/v7e-m+fp/hard/crti.o
LOAD c:/Program Files/ARMtoolchain/bin/../lib/gcc/arm-none-eabi/14.2.1/thumb/v7e-m+fp/hard/crtbegin.o
LOAD c:/Program Files/ARMtoolchain/bin/../lib/gcc/arm-none-eabi/14.2.1/thumb/v7e-m+fp/hard/crt0.o
LOAD build/main.o
LOAD build/thermal_control.o
LOAD build/freertos.o
LOAD build/stm32f4xx_it.o
LOAD build/stm32f4xx_hal_msp.o
LOAD build/stm32f4xx_hal_timebase_tim.o
LOAD build/usb_device.o
LOAD build/usbd_desc.o
LOAD build/usbd_cdc_if.o
LOAD build/usbd_conf.o
LOAD build/stm32f4xx_hal_tim.o
LOAD build/stm32f4xx_hal_tim_ex.o
LOAD build/stm32f4xx_hal_pcd.o
LOAD build/stm32f4xx_hal_pcd_ex.o
LOAD build/stm32f4xx_ll_usb.o
LOAD build/stm32f4xx_hal_rcc.o
LOAD build/stm32f4xx_hal_rcc_ex.o
LOAD build/stm32f4xx_hal_flash.o
LOAD build/stm32f4xx_hal_flash_ex.o
LOAD build/stm32f4xx_hal_flash_ramfunc.o
LOAD build/stm32f4xx_hal_gpio.o
LOAD build/stm32f4xx_hal_dma_ex.o
LOAD build/stm32f4xx_hal_dma.o
LOAD build/stm32f4xx_hal_pwr.o
LOAD build/stm32f4xx_hal_pwr_ex.o
LOAD build/stm32f4xx_hal_cortex.o
LOAD build/stm32f4xx_hal.o
LOAD build/stm32f4xx_hal_exti.o
LOAD build/stm32f4xx_hal_adc.o
LOAD build/stm32f4xx_hal_adc_ex.o
LOAD build/stm32f4xx_ll_adc.o
LOAD build/stm32f4xx_hal_i2c.o
LOAD build/stm32f4xx_hal_i2c_ex.o
LOAD build/system_stm32f4xx.o
LOAD build/croutine.o
LOAD build/event_groups.o
LOAD build/list.o
LOAD build/queue.o
LOAD build/stream_buffer.o
LOAD build/tasks.o
LOAD build/timers.o
LOAD build/cmsis_os2.o
LOAD build/heap_4.o
LOAD build/port.o
LOAD build/usbd_core.o
LOAD build/usbd_ctlreq.o
LOAD build/usbd_ioreq.o
LOAD build/usbd_cdc.o
LOAD build/startup_stm32f401xc.o
LOAD c:/Program Files/ARMtoolchain/bin/../lib/gcc/arm-none-eabi/14.2.1/thumb/v7e-m+fp/hard\libc_nano.a
LOAD c:/Program Files/ARMtoolchain/bin/../lib/gcc/arm-none-eabi/14.2.1/thumb/v7e-m+fp/hard\libm.a
LOAD c:/Program Files/ARMtoolchain/bin/../lib/gcc/arm-none-eabi/14.2.1/thumb/v7e-m+fp/hard\libnosys.a
START GROUP
LOAD c:/Program Files/ARMtoolchain/bin/../lib/gcc/arm-none-eabi/14.2.1/thumb/v7e-m+fp/hard\libgcc.a
LOAD c:/Program Files/ARMtoolchain/bin/../lib/gcc/arm-none-eabi/14.2.1/thumb/v7e-m+fp/hard\libc_nano.a
END GROUP
START GROUP
LOAD c:/Program Files/ARMtoolchain/bin/../lib/gcc/arm-none-eabi/14.2.1/thumb/v7e-m+fp/hard\libgcc.a
LOAD c:/Program Files/ARMtoolchain/bin/../lib/gcc/arm-none-eabi/14.2.1/thumb/v7e-m+fp/hard\libc_nano.a
END GROUP
LOAD c:/Program Files/ARMtoolchain/bin/../lib/gcc/arm-none-eabi/14.2.1/thumb/v7e-m+fp/hard/crtend.o
LOAD c:/Program Files/ARMtoolchain/bin/../lib/gcc/arm-none-eabi/14.2.1/thumb/v7e-m+fp/hard/crtn.o
                0x20010000                        _estack = (ORIGIN (RAM) + LENGTH (RAM))
                0x00000200                        _Min_Heap_Size = 0x200
                0x00000400                        _Min_Stack_Size = 0x400

.isr_vector     0x08000000      0x194
                0x08000000                        . = ALIGN (0x4)
 *(.isr_vector)
 .isr_vector    0x08000000      0x194 build/startup_stm32f401xc.o
                0x08000000                g_pfnVectors
                0x08000194                        . = ALIGN (0x4)

.text           0x080001a0     0x9338
                0x080001a0                        . = ALIGN (0x4)
 *(.text)
 .text          0x080001a0       0xa0 c:/Program Files/ARMtoolchain/bin/../lib/gcc/arm-none-eabi/14.2.1/thumb/v7e-m+fp/hard\libc_nano.a(libc_a-memchr.o)
                0x080001a0                memchr
 .text          0x08000240      0x378 c:/Program Files/ARMtoolchain/bin/../lib/gcc/arm-none-eabi/14.2.1/thumb/v7e-m+fp/hard\libgcc.a(_arm_addsubdf3.o)
                0x08000240                __aeabi_drsub
                0x08000248                __aeabi_dsub
                0x08000248                __subdf3
                0x0800024c                __aeabi_dadd
                0x0800024c                __adddf3
                0x080004c4                __floatunsidf
                0x080004c4                __aeabi_ui2d
                0x080004e4                __floatsidf
                0x080004e4                __aeabi_i2d
                0x08000508                __aeabi_f2d
                0x08000508                __extendsfdf2
                0x0800054c                __floatundidf
                0x0800054c                __aeabi_ul2d
                0x0800055c                __floatdidf
                0x0800055c                __aeabi_l2d
 .text          0x080005b8      0x424 c:/Program Files/ARMtoolchain/bin/../lib/gcc/arm-none-eabi/14.2.1/thumb/v7e-m+fp/hard\libgcc.a(_arm_muldivdf3.o)
                0x080005b8                __aeabi_dmul
                0x080005b8                __muldf3
                0x0800080c                __divdf3
                0x0800080c                __aeabi_ddiv
 .text          0x080009dc      0x110 c:/Program Files/ARMtoolchain/bin/../lib/gcc/arm-none-eabi/14.2.1/thumb/v7e-m+fp/hard\libgcc.a(_arm_cmpdf2.o)
                0x080009dc                __gtdf2
                0x080009dc                __gedf2
                0x080009e4                __ltdf2
                0x080009e4                __ledf2
                0x080009ec                __nedf2
                0x080009ec                __eqdf2
                0x080009ec                __cmpdf2
                0x08000a68                __aeabi_cdrcmple
                0x08000a78                __aeabi_cdcmpeq
                0x08000a78                __aeabi_cdcmple
                0x08000a88                __aeabi_dcmpeq
                0x08000a9c                __aeabi_dcmplt
                0x08000ab0                __aeabi_dcmple
                0x08000ac4                __aeabi_dcmpge
                0x08000ad8                __aeabi_dcmpgt
 .text          0x08000aec       0x2c c:/Program Files/ARMtoolchain/bin/../lib/gcc/arm-none-eabi/14.2.1/thumb/v7e-m+fp/hard\libgcc.a(_arm_unorddf2.o)
                0x08000aec                __unorddf2
                0x08000aec                __aeabi_dcmpun
 .text          0x08000b18       0x40 c:/Program Files/ARMtoolchain/bin/../lib/gcc/arm-none-eabi/14.2.1/thumb/v7e-m+fp/hard\libgcc.a(_arm_fixunsdfsi.o)
                0x08000b18                __aeabi_d2uiz
                0x08000b18                __fixunsdfsi
 .text          0x08000b58       0x30 c:/Program Files/ARMtoolchain/bin/../lib/gcc/arm-none-eabi/14.2.1/thumb/v7e-m+fp/hard\libgcc.a(_aeabi_uldivmod.o)
                0x08000b58                __aeabi_uldivmod
 .text          0x08000b88        0x4 c:/Program Files/ARMtoolchain/bin/../lib/gcc/arm-none-eabi/14.2.1/thumb/v7e-m+fp/hard\libgcc.a(_dvmd_tls.o)
                0x08000b88                __aeabi_idiv0
                0x08000b88                __aeabi_ldiv0
 *(.text*)
 .text.deregister_tm_clones
                0x08000b8c       0x1c c:/Program Files/ARMtoolchain/bin/../lib/gcc/arm-none-eabi/14.2.1/thumb/v7e-m+fp/hard/crtbegin.o
 .text.register_tm_clones
                0x08000ba8       0x24 c:/Program Files/ARMtoolchain/bin/../lib/gcc/arm-none-eabi/14.2.1/thumb/v7e-m+fp/hard/crtbegin.o
 .text.__do_global_dtors_aux
                0x08000bcc       0x28 c:/Program Files/ARMtoolchain/bin/../lib/gcc/arm-none-eabi/14.2.1/thumb/v7e-m+fp/hard/crtbegin.o
 .text.frame_dummy
                0x08000bf4       0x24 c:/Program Files/ARMtoolchain/bin/../lib/gcc/arm-none-eabi/14.2.1/thumb/v7e-m+fp/hard/crtbegin.o
 .text.ITM_SendChar
                0x08000c18       0x34 build/main.o
 .text.MX_GPIO_Init
                0x08000c4c       0x94 build/main.o
 .text.LED_manager
                0x08000ce0       0x24 build/main.o
                0x08000ce0                LED_manager
 .text.COM_manager
                0x08000d04      0x19c build/main.o
                0x08000d04                COM_manager
 .text.TEMP_manager
                0x08000ea0       0xc4 build/main.o
                0x08000ea0                TEMP_manager
 .text.StartBlink
                0x08000f64        0xe build/main.o
                0x08000f64                StartBlink
 .text._write   0x08000f72       0x1c build/main.o
                0x08000f72                _write
 *fill*         0x08000f8e        0x2 
 .text.HAL_TIM_PeriodElapsedCallback
                0x08000f90       0x18 build/main.o
                0x08000f90                HAL_TIM_PeriodElapsedCallback
 .text.Error_Handler
                0x08000fa8        0x4 build/main.o
                0x08000fa8                Error_Handler
 .text.MX_I2C1_Init
                0x08000fac       0x38 build/main.o
 .text.MX_ADC1_Init
                0x08000fe4       0x68 build/main.o
 .text.MX_TIM2_Init
                0x0800104c       0xa0 build/main.o
 .text.SystemClock_Config
                0x080010ec       0xa8 build/main.o
                0x080010ec                SystemClock_Config
 .text.main     0x08001194      0x130 build/main.o
                0x08001194                main
 .text.round_to_two_decimal_places
                0x080012c4       0x2c build/thermal_control.o
                0x080012c4                round_to_two_decimal_places
 .text.calc_temp
                0x080012f0       0xb0 build/thermal_control.o
                0x080012f0                calc_temp
 .text.NMI_Handler
                0x080013a0        0x2 build/stm32f4xx_it.o
                0x080013a0                NMI_Handler
 .text.HardFault_Handler
                0x080013a2        0x2 build/stm32f4xx_it.o
                0x080013a2                HardFault_Handler
 .text.MemManage_Handler
                0x080013a4        0x2 build/stm32f4xx_it.o
                0x080013a4                MemManage_Handler
 .text.BusFault_Handler
                0x080013a6        0x2 build/stm32f4xx_it.o
                0x080013a6                BusFault_Handler
 .text.UsageFault_Handler
                0x080013a8        0x2 build/stm32f4xx_it.o
                0x080013a8                UsageFault_Handler
 .text.DebugMon_Handler
                0x080013aa        0x2 build/stm32f4xx_it.o
                0x080013aa                DebugMon_Handler
 .text.TIM1_TRG_COM_TIM11_IRQHandler
                0x080013ac       0x10 build/stm32f4xx_it.o
                0x080013ac                TIM1_TRG_COM_TIM11_IRQHandler
 .text.OTG_FS_IRQHandler
                0x080013bc       0x10 build/stm32f4xx_it.o
                0x080013bc                OTG_FS_IRQHandler
 .text.HAL_MspInit
                0x080013cc       0x44 build/stm32f4xx_hal_msp.o
                0x080013cc                HAL_MspInit
 .text.HAL_ADC_MspInit
                0x08001410       0x68 build/stm32f4xx_hal_msp.o
                0x08001410                HAL_ADC_MspInit
 .text.HAL_I2C_MspInit
                0x08001478       0x70 build/stm32f4xx_hal_msp.o
                0x08001478                HAL_I2C_MspInit
 .text.HAL_TIM_Base_MspInit
                0x080014e8       0x2c build/stm32f4xx_hal_msp.o
                0x080014e8                HAL_TIM_Base_MspInit
 .text.HAL_TIM_MspPostInit
                0x08001514       0x54 build/stm32f4xx_hal_msp.o
                0x08001514                HAL_TIM_MspPostInit
 .text.HAL_InitTick
                0x08001568       0x94 build/stm32f4xx_hal_timebase_tim.o
                0x08001568                HAL_InitTick
 .text.MX_USB_DEVICE_Init
                0x080015fc       0x54 build/usb_device.o
                0x080015fc                MX_USB_DEVICE_Init
 .text.USBD_FS_DeviceDescriptor
                0x08001650        0xc build/usbd_desc.o
                0x08001650                USBD_FS_DeviceDescriptor
 .text.USBD_FS_LangIDStrDescriptor
                0x0800165c        0xc build/usbd_desc.o
                0x0800165c                USBD_FS_LangIDStrDescriptor
 .text.IntToUnicode
                0x08001668       0x46 build/usbd_desc.o
 *fill*         0x080016ae        0x2 
 .text.Get_SerialNum
                0x080016b0       0x38 build/usbd_desc.o
 .text.USBD_FS_SerialStrDescriptor
                0x080016e8       0x14 build/usbd_desc.o
                0x080016e8                USBD_FS_SerialStrDescriptor
 .text.USBD_FS_ProductStrDescriptor
                0x080016fc       0x24 build/usbd_desc.o
                0x080016fc                USBD_FS_ProductStrDescriptor
 .text.USBD_FS_ManufacturerStrDescriptor
                0x08001720       0x1c build/usbd_desc.o
                0x08001720                USBD_FS_ManufacturerStrDescriptor
 .text.USBD_FS_ConfigStrDescriptor
                0x0800173c       0x24 build/usbd_desc.o
                0x0800173c                USBD_FS_ConfigStrDescriptor
 .text.USBD_FS_InterfaceStrDescriptor
                0x08001760       0x24 build/usbd_desc.o
                0x08001760                USBD_FS_InterfaceStrDescriptor
 .text.CDC_DeInit_FS
                0x08001784        0x4 build/usbd_cdc_if.o
 .text.CDC_Control_FS
                0x08001788        0x4 build/usbd_cdc_if.o
 .text.CDC_TransmitCplt_FS
                0x0800178c        0x4 build/usbd_cdc_if.o
 .text.CDC_Receive_FS
                0x08001790       0x2c build/usbd_cdc_if.o
 .text.CDC_Init_FS
                0x080017bc       0x2c build/usbd_cdc_if.o
 .text.CDC_Transmit_FS
                0x080017e8       0x2c build/usbd_cdc_if.o
                0x080017e8                CDC_Transmit_FS
 .text.HAL_PCD_MspInit
                0x08001814       0x88 build/usbd_conf.o
                0x08001814                HAL_PCD_MspInit
 .text.HAL_PCD_MspDeInit
                0x0800189c       0x30 build/usbd_conf.o
                0x0800189c                HAL_PCD_MspDeInit
 .text.HAL_PCD_SetupStageCallback
                0x080018cc       0x10 build/usbd_conf.o
                0x080018cc                HAL_PCD_SetupStageCallback
 .text.HAL_PCD_DataOutStageCallback
                0x080018dc       0x18 build/usbd_conf.o
                0x080018dc                HAL_PCD_DataOutStageCallback
 .text.HAL_PCD_DataInStageCallback
                0x080018f4       0x16 build/usbd_conf.o
                0x080018f4                HAL_PCD_DataInStageCallback
 .text.HAL_PCD_SOFCallback
                0x0800190a        0xc build/usbd_conf.o
                0x0800190a                HAL_PCD_SOFCallback
 .text.HAL_PCD_ResetCallback
                0x08001916       0x24 build/usbd_conf.o
                0x08001916                HAL_PCD_ResetCallback
 *fill*         0x0800193a        0x2 
 .text.HAL_PCD_SuspendCallback
                0x0800193c       0x30 build/usbd_conf.o
                0x0800193c                HAL_PCD_SuspendCallback
 .text.HAL_PCD_ResumeCallback
                0x0800196c        0xc build/usbd_conf.o
                0x0800196c                HAL_PCD_ResumeCallback
 .text.HAL_PCD_ISOOUTIncompleteCallback
                0x08001978        0xc build/usbd_conf.o
                0x08001978                HAL_PCD_ISOOUTIncompleteCallback
 .text.HAL_PCD_ISOINIncompleteCallback
                0x08001984        0xc build/usbd_conf.o
                0x08001984                HAL_PCD_ISOINIncompleteCallback
 .text.HAL_PCD_ConnectCallback
                0x08001990        0xc build/usbd_conf.o
                0x08001990                HAL_PCD_ConnectCallback
 .text.HAL_PCD_DisconnectCallback
                0x0800199c        0xc build/usbd_conf.o
                0x0800199c                HAL_PCD_DisconnectCallback
 .text.USBD_LL_Init
                0x080019a8       0x68 build/usbd_conf.o
                0x080019a8                USBD_LL_Init
 .text.USBD_LL_IsStallEP
                0x08001a10       0x2c build/usbd_conf.o
                0x08001a10                USBD_LL_IsStallEP
 .text.USBD_LL_GetRxDataSize
                0x08001a3c        0xc build/usbd_conf.o
                0x08001a3c                USBD_LL_GetRxDataSize
 .text.USBD_static_malloc
                0x08001a48        0x8 build/usbd_conf.o
                0x08001a48                USBD_static_malloc
 .text.USBD_static_free
                0x08001a50        0x2 build/usbd_conf.o
                0x08001a50                USBD_static_free
 .text.USBD_Get_USB_Status
                0x08001a52       0x14 build/usbd_conf.o
                0x08001a52                USBD_Get_USB_Status
 .text.USBD_LL_DeInit
                0x08001a66       0x10 build/usbd_conf.o
                0x08001a66                USBD_LL_DeInit
 .text.USBD_LL_Start
                0x08001a76       0x10 build/usbd_conf.o
                0x08001a76                USBD_LL_Start
 .text.USBD_LL_Stop
                0x08001a86       0x10 build/usbd_conf.o
                0x08001a86                USBD_LL_Stop
 .text.USBD_LL_OpenEP
                0x08001a96       0x16 build/usbd_conf.o
                0x08001a96                USBD_LL_OpenEP
 .text.USBD_LL_CloseEP
                0x08001aac       0x10 build/usbd_conf.o
                0x08001aac                USBD_LL_CloseEP
 .text.USBD_LL_StallEP
                0x08001abc       0x10 build/usbd_conf.o
                0x08001abc                USBD_LL_StallEP
 .text.USBD_LL_ClearStallEP
                0x08001acc       0x10 build/usbd_conf.o
                0x08001acc                USBD_LL_ClearStallEP
 .text.USBD_LL_SetUSBAddress
                0x08001adc       0x10 build/usbd_conf.o
                0x08001adc                USBD_LL_SetUSBAddress
 .text.USBD_LL_Transmit
                0x08001aec       0x10 build/usbd_conf.o
                0x08001aec                USBD_LL_Transmit
 .text.USBD_LL_PrepareReceive
                0x08001afc       0x10 build/usbd_conf.o
                0x08001afc                USBD_LL_PrepareReceive
 .text.TIM_OC1_SetConfig
                0x08001b0c       0x54 build/stm32f4xx_hal_tim.o
 .text.TIM_OC3_SetConfig
                0x08001b60       0x5c build/stm32f4xx_hal_tim.o
 .text.TIM_OC4_SetConfig
                0x08001bbc       0x48 build/stm32f4xx_hal_tim.o
 .text.TIM_TI1_ConfigInputStage
                0x08001c04       0x26 build/stm32f4xx_hal_tim.o
 .text.TIM_TI2_ConfigInputStage
                0x08001c2a       0x28 build/stm32f4xx_hal_tim.o
 .text.TIM_ITRx_SetConfig
                0x08001c52       0x10 build/stm32f4xx_hal_tim.o
 *fill*         0x08001c62        0x2 
 .text.HAL_TIM_Base_Start_IT
                0x08001c64       0x74 build/stm32f4xx_hal_tim.o
                0x08001c64                HAL_TIM_Base_Start_IT
 .text.HAL_TIM_PWM_MspInit
                0x08001cd8        0x2 build/stm32f4xx_hal_tim.o
                0x08001cd8                HAL_TIM_PWM_MspInit
 .text.HAL_TIM_OC_DelayElapsedCallback
                0x08001cda        0x2 build/stm32f4xx_hal_tim.o
                0x08001cda                HAL_TIM_OC_DelayElapsedCallback
 .text.HAL_TIM_IC_CaptureCallback
                0x08001cdc        0x2 build/stm32f4xx_hal_tim.o
                0x08001cdc                HAL_TIM_IC_CaptureCallback
 .text.HAL_TIM_PWM_PulseFinishedCallback
                0x08001cde        0x2 build/stm32f4xx_hal_tim.o
                0x08001cde                HAL_TIM_PWM_PulseFinishedCallback
 .text.HAL_TIM_TriggerCallback
                0x08001ce0        0x2 build/stm32f4xx_hal_tim.o
                0x08001ce0                HAL_TIM_TriggerCallback
 .text.HAL_TIM_IRQHandler
                0x08001ce2      0x15e build/stm32f4xx_hal_tim.o
                0x08001ce2                HAL_TIM_IRQHandler
 .text.TIM_Base_SetConfig
                0x08001e40       0xac build/stm32f4xx_hal_tim.o
                0x08001e40                TIM_Base_SetConfig
 .text.HAL_TIM_Base_Init
                0x08001eec       0x58 build/stm32f4xx_hal_tim.o
                0x08001eec                HAL_TIM_Base_Init
 .text.HAL_TIM_PWM_Init
                0x08001f44       0x58 build/stm32f4xx_hal_tim.o
                0x08001f44                HAL_TIM_PWM_Init
 .text.TIM_OC2_SetConfig
                0x08001f9c       0x5c build/stm32f4xx_hal_tim.o
                0x08001f9c                TIM_OC2_SetConfig
 .text.HAL_TIM_PWM_ConfigChannel
                0x08001ff8       0xdc build/stm32f4xx_hal_tim.o
                0x08001ff8                HAL_TIM_PWM_ConfigChannel
 .text.TIM_ETR_SetConfig
                0x080020d4       0x1a build/stm32f4xx_hal_tim.o
                0x080020d4                TIM_ETR_SetConfig
 .text.HAL_TIM_ConfigClockSource
                0x080020ee       0xfe build/stm32f4xx_hal_tim.o
                0x080020ee                HAL_TIM_ConfigClockSource
 .text.TIM_CCxChannelCmd
                0x080021ec       0x1e build/stm32f4xx_hal_tim.o
                0x080021ec                TIM_CCxChannelCmd
 *fill*         0x0800220a        0x2 
 .text.HAL_TIM_PWM_Start
                0x0800220c       0xe4 build/stm32f4xx_hal_tim.o
                0x0800220c                HAL_TIM_PWM_Start
 .text.HAL_TIMEx_MasterConfigSynchronization
                0x080022f0       0x7c build/stm32f4xx_hal_tim_ex.o
                0x080022f0                HAL_TIMEx_MasterConfigSynchronization
 .text.HAL_TIMEx_CommutCallback
                0x0800236c        0x2 build/stm32f4xx_hal_tim_ex.o
                0x0800236c                HAL_TIMEx_CommutCallback
 .text.HAL_TIMEx_BreakCallback
                0x0800236e        0x2 build/stm32f4xx_hal_tim_ex.o
                0x0800236e                HAL_TIMEx_BreakCallback
 .text.PCD_WriteEmptyTxFifo
                0x08002370       0xd0 build/stm32f4xx_hal_pcd.o
 .text.HAL_PCD_Init
                0x08002440      0x102 build/stm32f4xx_hal_pcd.o
                0x08002440                HAL_PCD_Init
 .text.HAL_PCD_DeInit
                0x08002542       0x2e build/stm32f4xx_hal_pcd.o
                0x08002542                HAL_PCD_DeInit
 .text.HAL_PCD_Start
                0x08002570       0x44 build/stm32f4xx_hal_pcd.o
                0x08002570                HAL_PCD_Start
 .text.HAL_PCD_Stop
                0x080025b4       0x4c build/stm32f4xx_hal_pcd.o
                0x080025b4                HAL_PCD_Stop
 .text.PCD_EP_OutXfrComplete_int
                0x08002600      0x104 build/stm32f4xx_hal_pcd.o
 .text.PCD_EP_OutSetupPacket_int
                0x08002704       0x50 build/stm32f4xx_hal_pcd.o
 .text.HAL_PCD_SetAddress
                0x08002754       0x26 build/stm32f4xx_hal_pcd.o
                0x08002754                HAL_PCD_SetAddress
 .text.HAL_PCD_EP_Open
                0x0800277a       0x8c build/stm32f4xx_hal_pcd.o
                0x0800277a                HAL_PCD_EP_Open
 .text.HAL_PCD_EP_Close
                0x08002806       0x70 build/stm32f4xx_hal_pcd.o
                0x08002806                HAL_PCD_EP_Close
 .text.HAL_PCD_EP_Receive
                0x08002876       0x4a build/stm32f4xx_hal_pcd.o
                0x08002876                HAL_PCD_EP_Receive
 .text.HAL_PCD_EP_GetRxCount
                0x080028c0       0x12 build/stm32f4xx_hal_pcd.o
                0x080028c0                HAL_PCD_EP_GetRxCount
 .text.HAL_PCD_EP_Transmit
                0x080028d2       0x4a build/stm32f4xx_hal_pcd.o
                0x080028d2                HAL_PCD_EP_Transmit
 .text.HAL_PCD_EP_SetStall
                0x0800291c       0x86 build/stm32f4xx_hal_pcd.o
                0x0800291c                HAL_PCD_EP_SetStall
 .text.HAL_PCD_EP_ClrStall
                0x080029a2       0x74 build/stm32f4xx_hal_pcd.o
                0x080029a2                HAL_PCD_EP_ClrStall
 .text.HAL_PCD_EP_Abort
                0x08002a16       0x34 build/stm32f4xx_hal_pcd.o
                0x08002a16                HAL_PCD_EP_Abort
 .text.HAL_PCD_IRQHandler
                0x08002a4a      0x5c0 build/stm32f4xx_hal_pcd.o
                0x08002a4a                HAL_PCD_IRQHandler
 .text.HAL_PCDEx_SetTxFiFo
                0x0800300a       0x4c build/stm32f4xx_hal_pcd_ex.o
                0x0800300a                HAL_PCDEx_SetTxFiFo
 .text.HAL_PCDEx_SetRxFiFo
                0x08003056        0x8 build/stm32f4xx_hal_pcd_ex.o
                0x08003056                HAL_PCDEx_SetRxFiFo
 .text.HAL_PCDEx_LPM_Callback
                0x0800305e        0x2 build/stm32f4xx_hal_pcd_ex.o
                0x0800305e                HAL_PCDEx_LPM_Callback
 .text.USB_CoreReset
                0x08003060       0x4a build/stm32f4xx_ll_usb.o
 .text.USB_CoreInit
                0x080030aa       0x92 build/stm32f4xx_ll_usb.o
                0x080030aa                USB_CoreInit
 .text.USB_SetTurnaroundTime
                0x0800313c       0xe4 build/stm32f4xx_ll_usb.o
                0x0800313c                USB_SetTurnaroundTime
 .text.USB_EnableGlobalInt
                0x08003220        0xc build/stm32f4xx_ll_usb.o
                0x08003220                USB_EnableGlobalInt
 .text.USB_DisableGlobalInt
                0x0800322c        0xc build/stm32f4xx_ll_usb.o
                0x0800322c                USB_DisableGlobalInt
 .text.USB_FlushTxFifo
                0x08003238       0x4a build/stm32f4xx_ll_usb.o
                0x08003238                USB_FlushTxFifo
 .text.USB_FlushRxFifo
                0x08003282       0x46 build/stm32f4xx_ll_usb.o
                0x08003282                USB_FlushRxFifo
 .text.USB_SetDevSpeed
                0x080032c8        0xe build/stm32f4xx_ll_usb.o
                0x080032c8                USB_SetDevSpeed
 *fill*         0x080032d6        0x2 
 .text.USB_DevInit
                0x080032d8      0x198 build/stm32f4xx_ll_usb.o
                0x080032d8                USB_DevInit
 .text.USB_GetDevSpeed
                0x08003470       0x22 build/stm32f4xx_ll_usb.o
                0x08003470                USB_GetDevSpeed
 .text.USB_ActivateEndpoint
                0x08003492       0x9a build/stm32f4xx_ll_usb.o
                0x08003492                USB_ActivateEndpoint
 .text.USB_DeactivateEndpoint
                0x0800352c       0xe0 build/stm32f4xx_ll_usb.o
                0x0800352c                USB_DeactivateEndpoint
 .text.USB_EPStopXfer
                0x0800360c       0xbe build/stm32f4xx_ll_usb.o
                0x0800360c                USB_EPStopXfer
 .text.USB_WritePacket
                0x080036ca       0x2e build/stm32f4xx_ll_usb.o
                0x080036ca                USB_WritePacket
 .text.USB_EPStartXfer
                0x080036f8      0x244 build/stm32f4xx_ll_usb.o
                0x080036f8                USB_EPStartXfer
 .text.USB_ReadPacket
                0x0800393c       0x46 build/stm32f4xx_ll_usb.o
                0x0800393c                USB_ReadPacket
 .text.USB_EPSetStall
                0x08003982       0x5a build/stm32f4xx_ll_usb.o
                0x08003982                USB_EPSetStall
 .text.USB_EPClearStall
                0x080039dc       0x5c build/stm32f4xx_ll_usb.o
                0x080039dc                USB_EPClearStall
 .text.USB_StopDevice
                0x08003a38       0x40 build/stm32f4xx_ll_usb.o
                0x08003a38                USB_StopDevice
 .text.USB_SetDevAddress
                0x08003a78       0x20 build/stm32f4xx_ll_usb.o
                0x08003a78                USB_SetDevAddress
 .text.USB_DevConnect
                0x08003a98       0x1c build/stm32f4xx_ll_usb.o
                0x08003a98                USB_DevConnect
 .text.USB_DevDisconnect
                0x08003ab4       0x1c build/stm32f4xx_ll_usb.o
                0x08003ab4                USB_DevDisconnect
 .text.USB_ReadInterrupts
                0x08003ad0        0x8 build/stm32f4xx_ll_usb.o
                0x08003ad0                USB_ReadInterrupts
 .text.USB_ReadDevAllOutEpInterrupt
                0x08003ad8       0x10 build/stm32f4xx_ll_usb.o
                0x08003ad8                USB_ReadDevAllOutEpInterrupt
 .text.USB_ReadDevAllInEpInterrupt
                0x08003ae8       0x10 build/stm32f4xx_ll_usb.o
                0x08003ae8                USB_ReadDevAllInEpInterrupt
 .text.USB_ReadDevOutEPInterrupt
                0x08003af8       0x12 build/stm32f4xx_ll_usb.o
                0x08003af8                USB_ReadDevOutEPInterrupt
 .text.USB_ReadDevInEPInterrupt
                0x08003b0a       0x24 build/stm32f4xx_ll_usb.o
                0x08003b0a                USB_ReadDevInEPInterrupt
 .text.USB_GetMode
                0x08003b2e        0x8 build/stm32f4xx_ll_usb.o
                0x08003b2e                USB_GetMode
 .text.USB_SetCurrentMode
                0x08003b36       0x62 build/stm32f4xx_ll_usb.o
                0x08003b36                USB_SetCurrentMode
 .text.USB_ActivateSetup
                0x08003b98       0x1c build/stm32f4xx_ll_usb.o
                0x08003b98                USB_ActivateSetup
 .text.USB_EP0_OutStart
                0x08003bb4       0x60 build/stm32f4xx_ll_usb.o
                0x08003bb4                USB_EP0_OutStart
 .text.HAL_RCC_OscConfig
                0x08003c14      0x3f8 build/stm32f4xx_hal_rcc.o
                0x08003c14                HAL_RCC_OscConfig
 .text.HAL_RCC_GetSysClockFreq
                0x0800400c       0xa8 build/stm32f4xx_hal_rcc.o
                0x0800400c                HAL_RCC_GetSysClockFreq
 .text.HAL_RCC_ClockConfig
                0x080040b4      0x160 build/stm32f4xx_hal_rcc.o
                0x080040b4                HAL_RCC_ClockConfig
 .text.HAL_RCC_GetHCLKFreq
                0x08004214        0xc build/stm32f4xx_hal_rcc.o
                0x08004214                HAL_RCC_GetHCLKFreq
 .text.HAL_RCC_GetPCLK1Freq
                0x08004220       0x20 build/stm32f4xx_hal_rcc.o
                0x08004220                HAL_RCC_GetPCLK1Freq
 .text.HAL_RCC_GetPCLK2Freq
                0x08004240       0x20 build/stm32f4xx_hal_rcc.o
                0x08004240                HAL_RCC_GetPCLK2Freq
 .text.HAL_RCC_GetClockConfig
                0x08004260       0x3c build/stm32f4xx_hal_rcc.o
                0x08004260                HAL_RCC_GetClockConfig
 .text.HAL_GPIO_Init
                0x0800429c      0x1c8 build/stm32f4xx_hal_gpio.o
                0x0800429c                HAL_GPIO_Init
 .text.HAL_GPIO_DeInit
                0x08004464      0x110 build/stm32f4xx_hal_gpio.o
                0x08004464                HAL_GPIO_DeInit
 .text.HAL_GPIO_WritePin
                0x08004574        0xc build/stm32f4xx_hal_gpio.o
                0x08004574                HAL_GPIO_WritePin
 .text.HAL_GPIO_TogglePin
                0x08004580       0x12 build/stm32f4xx_hal_gpio.o
                0x08004580                HAL_GPIO_TogglePin
 *fill*         0x08004592        0x2 
 .text.__NVIC_EnableIRQ
                0x08004594       0x1c build/stm32f4xx_hal_cortex.o
 .text.__NVIC_DisableIRQ
                0x080045b0       0x24 build/stm32f4xx_hal_cortex.o
 .text.__NVIC_SetPriority
                0x080045d4       0x28 build/stm32f4xx_hal_cortex.o
 .text.NVIC_EncodePriority
                0x080045fc       0x3e build/stm32f4xx_hal_cortex.o
 *fill*         0x0800463a        0x2 
 .text.HAL_NVIC_SetPriorityGrouping
                0x0800463c       0x24 build/stm32f4xx_hal_cortex.o
                0x0800463c                HAL_NVIC_SetPriorityGrouping
 .text.HAL_NVIC_SetPriority
                0x08004660       0x20 build/stm32f4xx_hal_cortex.o
                0x08004660                HAL_NVIC_SetPriority
 .text.HAL_NVIC_EnableIRQ
                0x08004680        0x8 build/stm32f4xx_hal_cortex.o
                0x08004680                HAL_NVIC_EnableIRQ
 .text.HAL_NVIC_DisableIRQ
                0x08004688        0x8 build/stm32f4xx_hal_cortex.o
                0x08004688                HAL_NVIC_DisableIRQ
 .text.HAL_Init
                0x08004690       0x34 build/stm32f4xx_hal.o
                0x08004690                HAL_Init
 .text.HAL_IncTick
                0x080046c4       0x18 build/stm32f4xx_hal.o
                0x080046c4                HAL_IncTick
 .text.HAL_GetTick
                0x080046dc        0xc build/stm32f4xx_hal.o
                0x080046dc                HAL_GetTick
 .text.HAL_Delay
                0x080046e8       0x28 build/stm32f4xx_hal.o
                0x080046e8                HAL_Delay
 .text.ADC_Init
                0x08004710      0x134 build/stm32f4xx_hal_adc.o
 .text.HAL_ADC_Init
                0x08004844       0x56 build/stm32f4xx_hal_adc.o
                0x08004844                HAL_ADC_Init
 *fill*         0x0800489a        0x2 
 .text.HAL_ADC_Start
                0x0800489c      0x108 build/stm32f4xx_hal_adc.o
                0x0800489c                HAL_ADC_Start
 .text.HAL_ADC_Stop
                0x080049a4       0x40 build/stm32f4xx_hal_adc.o
                0x080049a4                HAL_ADC_Stop
 .text.HAL_ADC_PollForConversion
                0x080049e4       0xb8 build/stm32f4xx_hal_adc.o
                0x080049e4                HAL_ADC_PollForConversion
 .text.HAL_ADC_GetValue
                0x08004a9c        0x6 build/stm32f4xx_hal_adc.o
                0x08004a9c                HAL_ADC_GetValue
 *fill*         0x08004aa2        0x2 
 .text.HAL_ADC_ConfigChannel
                0x08004aa4      0x194 build/stm32f4xx_hal_adc.o
                0x08004aa4                HAL_ADC_ConfigChannel
 .text.HAL_I2C_Init
                0x08004c38      0x1bc build/stm32f4xx_hal_i2c.o
                0x08004c38                HAL_I2C_Init
 .text.SystemInit
                0x08004df4       0x14 build/system_stm32f4xx.o
                0x08004df4                SystemInit
 .text.vListInitialise
                0x08004e08       0x16 build/list.o
                0x08004e08                vListInitialise
 .text.vListInitialiseItem
                0x08004e1e        0x6 build/list.o
                0x08004e1e                vListInitialiseItem
 .text.vListInsertEnd
                0x08004e24       0x16 build/list.o
                0x08004e24                vListInsertEnd
 .text.vListInsert
                0x08004e3a       0x32 build/list.o
                0x08004e3a                vListInsert
 .text.uxListRemove
                0x08004e6c       0x26 build/list.o
                0x08004e6c                uxListRemove
 .text.prvIsQueueFull
                0x08004e92       0x1e build/queue.o
 .text.prvIsQueueEmpty
                0x08004eb0       0x1a build/queue.o
 .text.prvCopyDataToQueue
                0x08004eca       0x76 build/queue.o
 .text.prvCopyDataFromQueue
                0x08004f40       0x24 build/queue.o
 .text.prvUnlockQueue
                0x08004f64       0x6e build/queue.o
 .text.xQueueGenericReset
                0x08004fd2       0x84 build/queue.o
                0x08004fd2                xQueueGenericReset
 .text.prvInitialiseNewQueue
                0x08005056       0x22 build/queue.o
 .text.xQueueGenericCreateStatic
                0x08005078       0x94 build/queue.o
                0x08005078                xQueueGenericCreateStatic
 .text.xQueueGenericSend
                0x0800510c      0x188 build/queue.o
                0x0800510c                xQueueGenericSend
 .text.xQueueGenericSendFromISR
                0x08005294       0xce build/queue.o
                0x08005294                xQueueGenericSendFromISR
 .text.xQueueReceive
                0x08005362      0x15e build/queue.o
                0x08005362                xQueueReceive
 .text.vQueueAddToRegistry
                0x080054c0       0x28 build/queue.o
                0x080054c0                vQueueAddToRegistry
 .text.vQueueWaitForMessageRestricted
                0x080054e8       0x52 build/queue.o
                0x080054e8                vQueueWaitForMessageRestricted
 *fill*         0x0800553a        0x2 
 .text.prvResetNextTaskUnblockTime
                0x0800553c       0x2c build/tasks.o
 .text.prvInitialiseNewTask
                0x08005568      0x104 build/tasks.o
 .text.prvInitialiseTaskLists
                0x0800566c       0x68 build/tasks.o
 .text.prvAddNewTaskToReadyList
                0x080056d4       0xac build/tasks.o
 .text.prvDeleteTCB
                0x08005780       0x40 build/tasks.o
 .text.prvCheckTasksWaitingTermination
                0x080057c0       0x4c build/tasks.o
 .text.prvIdleTask
                0x0800580c       0x28 build/tasks.o
 .text.prvAddCurrentTaskToDelayedList
                0x08005834       0x7c build/tasks.o
 .text.xTaskCreateStatic
                0x080058b0       0x7a build/tasks.o
                0x080058b0                xTaskCreateStatic
 .text.xTaskCreate
                0x0800592a       0x66 build/tasks.o
                0x0800592a                xTaskCreate
 .text.vTaskStartScheduler
                0x08005990       0xac build/tasks.o
                0x08005990                vTaskStartScheduler
 .text.vTaskSuspendAll
                0x08005a3c       0x10 build/tasks.o
                0x08005a3c                vTaskSuspendAll
 .text.xTaskGetTickCount
                0x08005a4c        0xc build/tasks.o
                0x08005a4c                xTaskGetTickCount
 .text.xTaskIncrementTick
                0x08005a58      0x118 build/tasks.o
                0x08005a58                xTaskIncrementTick
 .text.xTaskResumeAll
                0x08005b70       0xf8 build/tasks.o
                0x08005b70                xTaskResumeAll
 .text.vTaskDelay
                0x08005c68       0x4c build/tasks.o
                0x08005c68                vTaskDelay
 .text.vTaskSwitchContext
                0x08005cb4       0xa4 build/tasks.o
                0x08005cb4                vTaskSwitchContext
 .text.vTaskPlaceOnEventList
                0x08005d58       0x30 build/tasks.o
                0x08005d58                vTaskPlaceOnEventList
 .text.vTaskPlaceOnEventListRestricted
                0x08005d88       0x38 build/tasks.o
                0x08005d88                vTaskPlaceOnEventListRestricted
 .text.xTaskRemoveFromEventList
                0x08005dc0       0x8c build/tasks.o
                0x08005dc0                xTaskRemoveFromEventList
 .text.vTaskInternalSetTimeOutState
                0x08005e4c       0x18 build/tasks.o
                0x08005e4c                vTaskInternalSetTimeOutState
 .text.xTaskCheckForTimeOut
                0x08005e64       0x88 build/tasks.o
                0x08005e64                xTaskCheckForTimeOut
 .text.vTaskMissedYield
                0x08005eec        0xc build/tasks.o
                0x08005eec                vTaskMissedYield
 .text.xTaskGetSchedulerState
                0x08005ef8       0x20 build/tasks.o
                0x08005ef8                xTaskGetSchedulerState
 .text.xTaskPriorityDisinherit
                0x08005f18       0x90 build/tasks.o
                0x08005f18                xTaskPriorityDisinherit
 .text.prvGetNextExpireTime
                0x08005fa8       0x20 build/timers.o
 .text.prvInsertTimerInActiveList
                0x08005fc8       0x48 build/timers.o
 .text.prvCheckForValidListAndQueue
                0x08006010       0x70 build/timers.o
 .text.xTimerCreateTimerTask
                0x08006080       0x64 build/timers.o
                0x08006080                xTimerCreateTimerTask
 .text.xTimerGenericCommand
                0x080060e4       0x6c build/timers.o
                0x080060e4                xTimerGenericCommand
 .text.prvSwitchTimerLists
                0x08006150       0x7c build/timers.o
 .text.prvSampleTimeNow
                0x080061cc       0x2c build/timers.o
 .text.prvProcessExpiredTimer
                0x080061f8       0x6c build/timers.o
 .text.prvProcessTimerOrBlockTask
                0x08006264       0x74 build/timers.o
 .text.prvProcessReceivedCommands
                0x080062d8      0x10c build/timers.o
 .text.prvTimerTask
                0x080063e4       0x16 build/timers.o
 .text.SysTick_Handler
                0x080063fa       0x18 build/cmsis_os2.o
                0x080063fa                SysTick_Handler
 *fill*         0x08006412        0x2 
 .text.osKernelInitialize
                0x08006414       0x24 build/cmsis_os2.o
                0x08006414                osKernelInitialize
 .text.osKernelStart
                0x08006438       0x38 build/cmsis_os2.o
                0x08006438                osKernelStart
 .text.osThreadNew
                0x08006470       0xb6 build/cmsis_os2.o
                0x08006470                osThreadNew
 .text.osDelay  0x08006526       0x1c build/cmsis_os2.o
                0x08006526                osDelay
 *fill*         0x08006542        0x2 
 .text.vApplicationGetIdleTaskMemory
                0x08006544       0x18 build/cmsis_os2.o
                0x08006544                vApplicationGetIdleTaskMemory
 .text.vApplicationGetTimerTaskMemory
                0x0800655c       0x18 build/cmsis_os2.o
                0x0800655c                vApplicationGetTimerTaskMemory
 .text.prvHeapInit
                0x08006574       0x64 build/heap_4.o
 .text.prvInsertBlockIntoFreeList
                0x080065d8       0x64 build/heap_4.o
 .text.pvPortMalloc
                0x0800663c      0x104 build/heap_4.o
                0x0800663c                pvPortMalloc
 .text.vPortFree
                0x08006740       0x7c build/heap_4.o
                0x08006740                vPortFree
 .text.prvTaskExitError
                0x080067bc       0x40 build/port.o
 .text.prvPortStartFirstTask
                0x080067fc       0x28 build/port.o
 .text.vPortEnableVFP
                0x08006824       0x14 build/port.o
 .text.pxPortInitialiseStack
                0x08006838       0x2c build/port.o
                0x08006838                pxPortInitialiseStack
 *fill*         0x08006864        0xc 
 .text.SVC_Handler
                0x08006870       0x24 build/port.o
                0x08006870                SVC_Handler
 .text.vPortEnterCritical
                0x08006894       0x44 build/port.o
                0x08006894                vPortEnterCritical
 .text.vPortExitCritical
                0x080068d8       0x2c build/port.o
                0x080068d8                vPortExitCritical
 *fill*         0x08006904        0xc 
 .text.PendSV_Handler
                0x08006910       0x64 build/port.o
                0x08006910                PendSV_Handler
 .text.xPortSysTickHandler
                0x08006974       0x2c build/port.o
                0x08006974                xPortSysTickHandler
 .text.vPortSetupTimerInterrupt
                0x080069a0       0x28 build/port.o
                0x080069a0                vPortSetupTimerInterrupt
 .text.xPortStartScheduler
                0x080069c8      0x118 build/port.o
                0x080069c8                xPortStartScheduler
 .text.vPortValidateInterruptPriority
                0x08006ae0       0x5c build/port.o
                0x08006ae0                vPortValidateInterruptPriority
 .text.USBD_Init
                0x08006b3c       0x2e build/usbd_core.o
                0x08006b3c                USBD_Init
 .text.USBD_DeInit
                0x08006b6a       0x32 build/usbd_core.o
                0x08006b6a                USBD_DeInit
 .text.USBD_RegisterClass
                0x08006b9c       0x40 build/usbd_core.o
                0x08006b9c                USBD_RegisterClass
 .text.USBD_Start
                0x08006bdc        0x8 build/usbd_core.o
                0x08006bdc                USBD_Start
 .text.USBD_SetClassConfig
                0x08006be4       0x12 build/usbd_core.o
                0x08006be4                USBD_SetClassConfig
 .text.USBD_ClrClassConfig
                0x08006bf6       0x12 build/usbd_core.o
                0x08006bf6                USBD_ClrClassConfig
 .text.USBD_LL_SetupStage
                0x08006c08       0x58 build/usbd_core.o
                0x08006c08                USBD_LL_SetupStage
 .text.USBD_LL_Reset
                0x08006c60       0x64 build/usbd_core.o
                0x08006c60                USBD_LL_Reset
 .text.USBD_LL_SetSpeed
                0x08006cc4        0x6 build/usbd_core.o
                0x08006cc4                USBD_LL_SetSpeed
 .text.USBD_LL_Suspend
                0x08006cca       0x1c build/usbd_core.o
                0x08006cca                USBD_LL_Suspend
 .text.USBD_LL_Resume
                0x08006ce6       0x18 build/usbd_core.o
                0x08006ce6                USBD_LL_Resume
 .text.USBD_LL_SOF
                0x08006cfe       0x20 build/usbd_core.o
                0x08006cfe                USBD_LL_SOF
 .text.USBD_LL_IsoINIncomplete
                0x08006d1e       0x2c build/usbd_core.o
                0x08006d1e                USBD_LL_IsoINIncomplete
 .text.USBD_LL_IsoOUTIncomplete
                0x08006d4a       0x2c build/usbd_core.o
                0x08006d4a                USBD_LL_IsoOUTIncomplete
 .text.USBD_LL_DevConnected
                0x08006d76        0x4 build/usbd_core.o
                0x08006d76                USBD_LL_DevConnected
 .text.USBD_LL_DevDisconnected
                0x08006d7a       0x20 build/usbd_core.o
                0x08006d7a                USBD_LL_DevDisconnected
 .text.USBD_CoreFindIF
                0x08006d9a        0x4 build/usbd_core.o
                0x08006d9a                USBD_CoreFindIF
 .text.USBD_CoreFindEP
                0x08006d9e        0x4 build/usbd_core.o
                0x08006d9e                USBD_CoreFindEP
 .text.USBD_LL_DataOutStage
                0x08006da2       0xc0 build/usbd_core.o
                0x08006da2                USBD_LL_DataOutStage
 .text.USBD_LL_DataInStage
                0x08006e62       0xd2 build/usbd_core.o
                0x08006e62                USBD_LL_DataInStage
 .text.USBD_GetNextDesc
                0x08006f34        0xe build/usbd_core.o
                0x08006f34                USBD_GetNextDesc
 .text.USBD_GetEpDesc
                0x08006f42       0x3e build/usbd_core.o
                0x08006f42                USBD_GetEpDesc
 .text.USBD_GetLen
                0x08006f80       0x14 build/usbd_ctlreq.o
 .text.USBD_ParseSetupRequest
                0x08006f94       0x28 build/usbd_ctlreq.o
                0x08006f94                USBD_ParseSetupRequest
 .text.USBD_CtlError
                0x08006fbc       0x14 build/usbd_ctlreq.o
                0x08006fbc                USBD_CtlError
 .text.USBD_GetDescriptor
                0x08006fd0      0x18a build/usbd_ctlreq.o
 .text.USBD_SetAddress
                0x0800715a       0x4e build/usbd_ctlreq.o
 .text.USBD_SetConfig
                0x080071a8       0xcc build/usbd_ctlreq.o
 .text.USBD_GetConfig
                0x08007274       0x40 build/usbd_ctlreq.o
 .text.USBD_GetStatus
                0x080072b4       0x38 build/usbd_ctlreq.o
 .text.USBD_SetFeature
                0x080072ec       0x2a build/usbd_ctlreq.o
 .text.USBD_ClrFeature
                0x08007316       0x26 build/usbd_ctlreq.o
 .text.USBD_StdDevReq
                0x0800733c       0x76 build/usbd_ctlreq.o
                0x0800733c                USBD_StdDevReq
 .text.USBD_StdItfReq
                0x080073b2       0x84 build/usbd_ctlreq.o
                0x080073b2                USBD_StdItfReq
 .text.USBD_StdEPReq
                0x08007436      0x238 build/usbd_ctlreq.o
                0x08007436                USBD_StdEPReq
 .text.USBD_GetString
                0x0800766e       0x46 build/usbd_ctlreq.o
                0x0800766e                USBD_GetString
 .text.USBD_CtlSendData
                0x080076b4       0x1a build/usbd_ioreq.o
                0x080076b4                USBD_CtlSendData
 .text.USBD_CtlContinueSendData
                0x080076ce       0x10 build/usbd_ioreq.o
                0x080076ce                USBD_CtlContinueSendData
 .text.USBD_CtlPrepareRx
                0x080076de       0x1e build/usbd_ioreq.o
                0x080076de                USBD_CtlPrepareRx
 .text.USBD_CtlContinueRx
                0x080076fc       0x10 build/usbd_ioreq.o
                0x080076fc                USBD_CtlContinueRx
 .text.USBD_CtlSendStatus
                0x0800770c       0x16 build/usbd_ioreq.o
                0x0800770c                USBD_CtlSendStatus
 .text.USBD_CtlReceiveStatus
                0x08007722       0x16 build/usbd_ioreq.o
                0x08007722                USBD_CtlReceiveStatus
 .text.USBD_CDC_EP0_RxReady
                0x08007738       0x40 build/usbd_cdc.o
 .text.USBD_CDC_GetDeviceQualifierDescriptor
                0x08007778        0xc build/usbd_cdc.o
                0x08007778                USBD_CDC_GetDeviceQualifierDescriptor
 .text.USBD_CDC_GetOtherSpeedCfgDesc
                0x08007784       0x48 build/usbd_cdc.o
 .text.USBD_CDC_GetFSCfgDesc
                0x080077cc       0x48 build/usbd_cdc.o
 .text.USBD_CDC_GetHSCfgDesc
                0x08007814       0x48 build/usbd_cdc.o
 .text.USBD_CDC_DataOut
                0x0800785c       0x38 build/usbd_cdc.o
 .text.USBD_CDC_DataIn
                0x08007894       0x7c build/usbd_cdc.o
 .text.USBD_CDC_Setup
                0x08007910      0x114 build/usbd_cdc.o
 .text.USBD_CDC_DeInit
                0x08007a24       0x64 build/usbd_cdc.o
 .text.USBD_CDC_Init
                0x08007a88       0xee build/usbd_cdc.o
 .text.USBD_CDC_RegisterInterface
                0x08007b76       0x16 build/usbd_cdc.o
                0x08007b76                USBD_CDC_RegisterInterface
 .text.USBD_CDC_SetTxBuffer
                0x08007b8c       0x1c build/usbd_cdc.o
                0x08007b8c                USBD_CDC_SetTxBuffer
 .text.USBD_CDC_SetRxBuffer
                0x08007ba8       0x18 build/usbd_cdc.o
                0x08007ba8                USBD_CDC_SetRxBuffer
 .text.USBD_CDC_TransmitPacket
                0x08007bc0       0x36 build/usbd_cdc.o
                0x08007bc0                USBD_CDC_TransmitPacket
 .text.USBD_CDC_ReceivePacket
                0x08007bf6       0x38 build/usbd_cdc.o
                0x08007bf6                USBD_CDC_ReceivePacket
 *fill*         0x08007c2e        0x2 
 .text.Reset_Handler
                0x08007c30       0x50 build/startup_stm32f401xc.o
                0x08007c30                Reset_Handler
 .text.Default_Handler
                0x08007c80        0x2 build/startup_stm32f401xc.o
                0x08007c80                RTC_Alarm_IRQHandler
                0x08007c80                EXTI2_IRQHandler
                0x08007c80                SPI4_IRQHandler
                0x08007c80                TIM1_CC_IRQHandler
                0x08007c80                DMA2_Stream5_IRQHandler
                0x08007c80                DMA1_Stream5_IRQHandler
                0x08007c80                PVD_IRQHandler
                0x08007c80                SDIO_IRQHandler
                0x08007c80                TAMP_STAMP_IRQHandler
                0x08007c80                EXTI3_IRQHandler
                0x08007c80                TIM1_UP_TIM10_IRQHandler
                0x08007c80                I2C3_ER_IRQHandler
                0x08007c80                EXTI0_IRQHandler
                0x08007c80                I2C2_EV_IRQHandler
                0x08007c80                DMA1_Stream2_IRQHandler
                0x08007c80                FPU_IRQHandler
                0x08007c80                DMA2_Stream2_IRQHandler
                0x08007c80                SPI1_IRQHandler
                0x08007c80                TIM1_BRK_TIM9_IRQHandler
                0x08007c80                DMA2_Stream3_IRQHandler
                0x08007c80                USART6_IRQHandler
                0x08007c80                DMA2_Stream0_IRQHandler
                0x08007c80                TIM4_IRQHandler
                0x08007c80                I2C1_EV_IRQHandler
                0x08007c80                DMA1_Stream6_IRQHandler
                0x08007c80                DMA1_Stream1_IRQHandler
                0x08007c80                TIM3_IRQHandler
                0x08007c80                RCC_IRQHandler
                0x08007c80                Default_Handler
                0x08007c80                EXTI15_10_IRQHandler
                0x08007c80                ADC_IRQHandler
                0x08007c80                DMA1_Stream7_IRQHandler
                0x08007c80                TIM5_IRQHandler
                0x08007c80                DMA2_Stream7_IRQHandler
                0x08007c80                I2C3_EV_IRQHandler
                0x08007c80                EXTI9_5_IRQHandler
                0x08007c80                RTC_WKUP_IRQHandler
                0x08007c80                SPI2_IRQHandler
                0x08007c80                DMA1_Stream0_IRQHandler
                0x08007c80                EXTI4_IRQHandler
                0x08007c80                WWDG_IRQHandler
                0x08007c80                TIM2_IRQHandler
                0x08007c80                OTG_FS_WKUP_IRQHandler
                0x08007c80                EXTI1_IRQHandler
                0x08007c80                USART2_IRQHandler
                0x08007c80                I2C2_ER_IRQHandler
                0x08007c80                DMA2_Stream1_IRQHandler
                0x08007c80                FLASH_IRQHandler
                0x08007c80                DMA2_Stream4_IRQHandler
                0x08007c80                USART1_IRQHandler
                0x08007c80                SPI3_IRQHandler
                0x08007c80                DMA1_Stream4_IRQHandler
                0x08007c80                I2C1_ER_IRQHandler
                0x08007c80                DMA2_Stream6_IRQHandler
                0x08007c80                DMA1_Stream3_IRQHandler
 *fill*         0x08007c82        0x2 
 .text.std      0x08007c84       0x6c c:/Program Files/ARMtoolchain/bin/../lib/gcc/arm-none-eabi/14.2.1/thumb/v7e-m+fp/hard\libc_nano.a(libc_a-findfp.o)
 .text.stdio_exit_handler
                0x08007cf0       0x18 c:/Program Files/ARMtoolchain/bin/../lib/gcc/arm-none-eabi/14.2.1/thumb/v7e-m+fp/hard\libc_nano.a(libc_a-findfp.o)
 .text.cleanup_stdio
                0x08007d08       0x40 c:/Program Files/ARMtoolchain/bin/../lib/gcc/arm-none-eabi/14.2.1/thumb/v7e-m+fp/hard\libc_nano.a(libc_a-findfp.o)
 .text.global_stdio_init.part.0
                0x08007d48       0x40 c:/Program Files/ARMtoolchain/bin/../lib/gcc/arm-none-eabi/14.2.1/thumb/v7e-m+fp/hard\libc_nano.a(libc_a-findfp.o)
 .text.__sfp_lock_acquire
                0x08007d88        0xc c:/Program Files/ARMtoolchain/bin/../lib/gcc/arm-none-eabi/14.2.1/thumb/v7e-m+fp/hard\libc_nano.a(libc_a-findfp.o)
                0x08007d88                __sfp_lock_acquire
 .text.__sfp_lock_release
                0x08007d94        0xc c:/Program Files/ARMtoolchain/bin/../lib/gcc/arm-none-eabi/14.2.1/thumb/v7e-m+fp/hard\libc_nano.a(libc_a-findfp.o)
                0x08007d94                __sfp_lock_release
 .text.__sinit  0x08007da0       0x30 c:/Program Files/ARMtoolchain/bin/../lib/gcc/arm-none-eabi/14.2.1/thumb/v7e-m+fp/hard\libc_nano.a(libc_a-findfp.o)
                0x08007da0                __sinit
 .text._fwalk_sglue
                0x08007dd0       0x3c c:/Program Files/ARMtoolchain/bin/../lib/gcc/arm-none-eabi/14.2.1/thumb/v7e-m+fp/hard\libc_nano.a(libc_a-fwalk.o)
                0x08007dd0                _fwalk_sglue
 .text.printf   0x08007e0c       0x24 c:/Program Files/ARMtoolchain/bin/../lib/gcc/arm-none-eabi/14.2.1/thumb/v7e-m+fp/hard\libc_nano.a(libc_a-printf.o)
                0x08007e0c                iprintf
                0x08007e0c                printf
 .text._puts_r  0x08007e30       0xaa c:/Program Files/ARMtoolchain/bin/../lib/gcc/arm-none-eabi/14.2.1/thumb/v7e-m+fp/hard\libc_nano.a(libc_a-puts.o)
                0x08007e30                _puts_r
 *fill*         0x08007eda        0x2 
 .text.puts     0x08007edc       0x10 c:/Program Files/ARMtoolchain/bin/../lib/gcc/arm-none-eabi/14.2.1/thumb/v7e-m+fp/hard\libc_nano.a(libc_a-puts.o)
                0x08007edc                puts
 .text.__sread  0x08007eec       0x22 c:/Program Files/ARMtoolchain/bin/../lib/gcc/arm-none-eabi/14.2.1/thumb/v7e-m+fp/hard\libc_nano.a(libc_a-stdio.o)
                0x08007eec                __sread
 .text.__swrite
                0x08007f0e       0x38 c:/Program Files/ARMtoolchain/bin/../lib/gcc/arm-none-eabi/14.2.1/thumb/v7e-m+fp/hard\libc_nano.a(libc_a-stdio.o)
                0x08007f0e                __swrite
 .text.__sseek  0x08007f46       0x26 c:/Program Files/ARMtoolchain/bin/../lib/gcc/arm-none-eabi/14.2.1/thumb/v7e-m+fp/hard\libc_nano.a(libc_a-stdio.o)
                0x08007f46                __sseek
 .text.__sclose
                0x08007f6c        0x8 c:/Program Files/ARMtoolchain/bin/../lib/gcc/arm-none-eabi/14.2.1/thumb/v7e-m+fp/hard\libc_nano.a(libc_a-stdio.o)
                0x08007f6c                __sclose
 .text.__swbuf_r
                0x08007f74       0x7c c:/Program Files/ARMtoolchain/bin/../lib/gcc/arm-none-eabi/14.2.1/thumb/v7e-m+fp/hard\libc_nano.a(libc_a-wbuf.o)
                0x08007f74                __swbuf_r
 .text.__swsetup_r
                0x08007ff0       0xa8 c:/Program Files/ARMtoolchain/bin/../lib/gcc/arm-none-eabi/14.2.1/thumb/v7e-m+fp/hard\libc_nano.a(libc_a-wsetup.o)
                0x08007ff0                __swsetup_r
 .text.memset   0x08008098       0x10 c:/Program Files/ARMtoolchain/bin/../lib/gcc/arm-none-eabi/14.2.1/thumb/v7e-m+fp/hard\libc_nano.a(libc_a-memset.o)
                0x08008098                memset
 .text._close_r
                0x080080a8       0x20 c:/Program Files/ARMtoolchain/bin/../lib/gcc/arm-none-eabi/14.2.1/thumb/v7e-m+fp/hard\libc_nano.a(libc_a-closer.o)
                0x080080a8                _close_r
 .text._reclaim_reent
                0x080080c8       0xbc c:/Program Files/ARMtoolchain/bin/../lib/gcc/arm-none-eabi/14.2.1/thumb/v7e-m+fp/hard\libc_nano.a(libc_a-reent.o)
                0x080080c8                _reclaim_reent
 .text._lseek_r
                0x08008184       0x24 c:/Program Files/ARMtoolchain/bin/../lib/gcc/arm-none-eabi/14.2.1/thumb/v7e-m+fp/hard\libc_nano.a(libc_a-lseekr.o)
                0x08008184                _lseek_r
 .text._read_r  0x080081a8       0x24 c:/Program Files/ARMtoolchain/bin/../lib/gcc/arm-none-eabi/14.2.1/thumb/v7e-m+fp/hard\libc_nano.a(libc_a-readr.o)
                0x080081a8                _read_r
 .text._write_r
                0x080081cc       0x24 c:/Program Files/ARMtoolchain/bin/../lib/gcc/arm-none-eabi/14.2.1/thumb/v7e-m+fp/hard\libc_nano.a(libc_a-writer.o)
                0x080081cc                _write_r
 .text.__libc_init_array
                0x080081f0       0x48 c:/Program Files/ARMtoolchain/bin/../lib/gcc/arm-none-eabi/14.2.1/thumb/v7e-m+fp/hard\libc_nano.a(libc_a-init.o)
                0x080081f0                __libc_init_array
 .text.__retarget_lock_init_recursive
                0x08008238        0x2 c:/Program Files/ARMtoolchain/bin/../lib/gcc/arm-none-eabi/14.2.1/thumb/v7e-m+fp/hard\libc_nano.a(libc_a-lock.o)
                0x08008238                __retarget_lock_init_recursive
 .text.__retarget_lock_acquire_recursive
                0x0800823a        0x2 c:/Program Files/ARMtoolchain/bin/../lib/gcc/arm-none-eabi/14.2.1/thumb/v7e-m+fp/hard\libc_nano.a(libc_a-lock.o)
                0x0800823a                __retarget_lock_acquire_recursive
 .text.__retarget_lock_release_recursive
                0x0800823c        0x2 c:/Program Files/ARMtoolchain/bin/../lib/gcc/arm-none-eabi/14.2.1/thumb/v7e-m+fp/hard\libc_nano.a(libc_a-lock.o)
                0x0800823c                __retarget_lock_release_recursive
 .text.memcpy   0x0800823e       0x1c c:/Program Files/ARMtoolchain/bin/../lib/gcc/arm-none-eabi/14.2.1/thumb/v7e-m+fp/hard\libc_nano.a(libc_a-memcpy-stub.o)
                0x0800823e                memcpy
 *fill*         0x0800825a        0x2 
 .text._free_r  0x0800825c       0x94 c:/Program Files/ARMtoolchain/bin/../lib/gcc/arm-none-eabi/14.2.1/thumb/v7e-m+fp/hard\libc_nano.a(libc_a-freer.o)
                0x0800825c                _free_r
 .text.sbrk_aligned
                0x080082f0       0x44 c:/Program Files/ARMtoolchain/bin/../lib/gcc/arm-none-eabi/14.2.1/thumb/v7e-m+fp/hard\libc_nano.a(libc_a-mallocr.o)
 .text._malloc_r
                0x08008334      0x100 c:/Program Files/ARMtoolchain/bin/../lib/gcc/arm-none-eabi/14.2.1/thumb/v7e-m+fp/hard\libc_nano.a(libc_a-mallocr.o)
                0x08008334                _malloc_r
 .text.__malloc_lock
                0x08008434        0xc c:/Program Files/ARMtoolchain/bin/../lib/gcc/arm-none-eabi/14.2.1/thumb/v7e-m+fp/hard\libc_nano.a(libc_a-mlock.o)
                0x08008434                __malloc_lock
 .text.__malloc_unlock
                0x08008440        0xc c:/Program Files/ARMtoolchain/bin/../lib/gcc/arm-none-eabi/14.2.1/thumb/v7e-m+fp/hard\libc_nano.a(libc_a-mlock.o)
                0x08008440                __malloc_unlock
 .text.__sfputc_r
                0x0800844c       0x2e c:/Program Files/ARMtoolchain/bin/../lib/gcc/arm-none-eabi/14.2.1/thumb/v7e-m+fp/hard\libc_nano.a(libc_a-nano-vfprintf.o)
 .text.__sfputs_r
                0x0800847a       0x24 c:/Program Files/ARMtoolchain/bin/../lib/gcc/arm-none-eabi/14.2.1/thumb/v7e-m+fp/hard\libc_nano.a(libc_a-nano-vfprintf.o)
                0x0800847a                __sfputs_r
 *fill*         0x0800849e        0x2 
 .text._vfprintf_r
                0x080084a0      0x230 c:/Program Files/ARMtoolchain/bin/../lib/gcc/arm-none-eabi/14.2.1/thumb/v7e-m+fp/hard\libc_nano.a(libc_a-nano-vfprintf.o)
                0x080084a0                _vfprintf_r
                0x080084a0                _vfiprintf_r
 .text._printf_common
                0x080086d0       0xda c:/Program Files/ARMtoolchain/bin/../lib/gcc/arm-none-eabi/14.2.1/thumb/v7e-m+fp/hard\libc_nano.a(libc_a-nano-vfprintf_i.o)
                0x080086d0                _printf_common
 *fill*         0x080087aa        0x2 
 .text._printf_i
                0x080087ac      0x240 c:/Program Files/ARMtoolchain/bin/../lib/gcc/arm-none-eabi/14.2.1/thumb/v7e-m+fp/hard\libc_nano.a(libc_a-nano-vfprintf_i.o)
                0x080087ac                _printf_i
 .text.__sflush_r
                0x080089ec      0x104 c:/Program Files/ARMtoolchain/bin/../lib/gcc/arm-none-eabi/14.2.1/thumb/v7e-m+fp/hard\libc_nano.a(libc_a-fflush.o)
                0x080089ec                __sflush_r
 .text._fflush_r
                0x08008af0       0x50 c:/Program Files/ARMtoolchain/bin/../lib/gcc/arm-none-eabi/14.2.1/thumb/v7e-m+fp/hard\libc_nano.a(libc_a-fflush.o)
                0x08008af0                _fflush_r
 .text.__swhatbuf_r
                0x08008b40       0x48 c:/Program Files/ARMtoolchain/bin/../lib/gcc/arm-none-eabi/14.2.1/thumb/v7e-m+fp/hard\libc_nano.a(libc_a-makebuf.o)
                0x08008b40                __swhatbuf_r
 .text.__smakebuf_r
                0x08008b88       0x72 c:/Program Files/ARMtoolchain/bin/../lib/gcc/arm-none-eabi/14.2.1/thumb/v7e-m+fp/hard\libc_nano.a(libc_a-makebuf.o)
                0x08008b88                __smakebuf_r
 *fill*         0x08008bfa        0x2 
 .text._fstat_r
                0x08008bfc       0x24 c:/Program Files/ARMtoolchain/bin/../lib/gcc/arm-none-eabi/14.2.1/thumb/v7e-m+fp/hard\libc_nano.a(libc_a-fstatr.o)
                0x08008bfc                _fstat_r
 .text._isatty_r
                0x08008c20       0x20 c:/Program Files/ARMtoolchain/bin/../lib/gcc/arm-none-eabi/14.2.1/thumb/v7e-m+fp/hard\libc_nano.a(libc_a-isattyr.o)
                0x08008c20                _isatty_r
 .text._sbrk_r  0x08008c40       0x20 c:/Program Files/ARMtoolchain/bin/../lib/gcc/arm-none-eabi/14.2.1/thumb/v7e-m+fp/hard\libc_nano.a(libc_a-sbrkr.o)
                0x08008c40                _sbrk_r
 .text.log      0x08008c60       0x84 c:/Program Files/ARMtoolchain/bin/../lib/gcc/arm-none-eabi/14.2.1/thumb/v7e-m+fp/hard\libm.a(libm_a-w_log.o)
                0x08008c60                log
 *fill*         0x08008ce4        0x4 
 .text.nan      0x08008ce8       0x10 c:/Program Files/ARMtoolchain/bin/../lib/gcc/arm-none-eabi/14.2.1/thumb/v7e-m+fp/hard\libm.a(libm_a-s_nan.o)
                0x08008ce8                nan
 .text.round    0x08008cf8       0xa0 c:/Program Files/ARMtoolchain/bin/../lib/gcc/arm-none-eabi/14.2.1/thumb/v7e-m+fp/hard\libm.a(libm_a-s_round.o)
                0x08008cf8                round
 .text.__ieee754_log
                0x08008d98      0x3b8 c:/Program Files/ARMtoolchain/bin/../lib/gcc/arm-none-eabi/14.2.1/thumb/v7e-m+fp/hard\libm.a(libm_a-e_log.o)
                0x08008d98                __ieee754_log
 .text._close   0x08009150       0x10 c:/Program Files/ARMtoolchain/bin/../lib/gcc/arm-none-eabi/14.2.1/thumb/v7e-m+fp/hard\libnosys.a(close.o)
                0x08009150                _close
 .text._fstat   0x08009160       0x10 c:/Program Files/ARMtoolchain/bin/../lib/gcc/arm-none-eabi/14.2.1/thumb/v7e-m+fp/hard\libnosys.a(fstat.o)
                0x08009160                _fstat
 .text._isatty  0x08009170       0x10 c:/Program Files/ARMtoolchain/bin/../lib/gcc/arm-none-eabi/14.2.1/thumb/v7e-m+fp/hard\libnosys.a(isatty.o)
                0x08009170                _isatty
 .text._lseek   0x08009180       0x10 c:/Program Files/ARMtoolchain/bin/../lib/gcc/arm-none-eabi/14.2.1/thumb/v7e-m+fp/hard\libnosys.a(lseek.o)
                0x08009180                _lseek
 .text._read    0x08009190       0x10 c:/Program Files/ARMtoolchain/bin/../lib/gcc/arm-none-eabi/14.2.1/thumb/v7e-m+fp/hard\libnosys.a(read.o)
                0x08009190                _read
 .text._sbrk    0x080091a0       0x1c c:/Program Files/ARMtoolchain/bin/../lib/gcc/arm-none-eabi/14.2.1/thumb/v7e-m+fp/hard\libnosys.a(sbrk.o)
                0x080091a0                _sbrk
 .text.__udivmoddi4
                0x080091bc      0x2f8 c:/Program Files/ARMtoolchain/bin/../lib/gcc/arm-none-eabi/14.2.1/thumb/v7e-m+fp/hard\libgcc.a(_udivmoddi4.o)
                0x080091bc                __udivmoddi4
 .text.__errno  0x080094b4        0xc c:/Program Files/ARMtoolchain/bin/../lib/gcc/arm-none-eabi/14.2.1/thumb/v7e-m+fp/hard\libc_nano.a(libc_a-errno.o)
                0x080094b4                __errno
 *(.glue_7)
 .glue_7        0x080094c0        0x0 linker stubs
 *(.glue_7t)
 .glue_7t       0x080094c0        0x0 linker stubs
 *(.eh_frame)
 .eh_frame      0x080094c0        0x0 c:/Program Files/ARMtoolchain/bin/../lib/gcc/arm-none-eabi/14.2.1/thumb/v7e-m+fp/hard/crtbegin.o
 *(.init)
 .init          0x080094c0        0x4 c:/Program Files/ARMtoolchain/bin/../lib/gcc/arm-none-eabi/14.2.1/thumb/v7e-m+fp/hard/crti.o
                0x080094c0                _init
 .init          0x080094c4        0x8 c:/Program Files/ARMtoolchain/bin/../lib/gcc/arm-none-eabi/14.2.1/thumb/v7e-m+fp/hard/crtn.o
 *(.fini)
 .fini          0x080094cc        0x4 c:/Program Files/ARMtoolchain/bin/../lib/gcc/arm-none-eabi/14.2.1/thumb/v7e-m+fp/hard/crti.o
                0x080094cc                _fini
 .fini          0x080094d0        0x8 c:/Program Files/ARMtoolchain/bin/../lib/gcc/arm-none-eabi/14.2.1/thumb/v7e-m+fp/hard/crtn.o
                0x080094d8                        . = ALIGN (0x4)
                0x080094d8                        _etext = .

.vfp11_veneer   0x080094d8        0x0
 .vfp11_veneer  0x080094d8        0x0 linker stubs

.v4_bx          0x080094d8        0x0
 .v4_bx         0x080094d8        0x0 linker stubs

.iplt           0x080094d8        0x0
 .iplt          0x080094d8        0x0 c:/Program Files/ARMtoolchain/bin/../lib/gcc/arm-none-eabi/14.2.1/thumb/v7e-m+fp/hard/crtbegin.o

.rodata         0x080094d8      0x28c
                0x080094d8                        . = ALIGN (0x4)
 *(.rodata)
 *(.rodata*)
 .rodata.LED_manager.str1.4
                0x080094d8      0x1b0 build/main.o
                                 0x2a (size before relaxing)
 .rodata.COM_manager.str1.4
                0x08009688       0xdf build/main.o
 .rodata.main.str1.4
                0x08009688       0x26 build/main.o
 .rodata.str1.4
                0x08009688       0x1a build/main.o
 .rodata.TEMP_attributes
                0x08009688       0x24 build/main.o
                0x08009688                TEMP_attributes
 .rodata.LED_attributes
                0x080096ac       0x24 build/main.o
                0x080096ac                LED_attributes
 .rodata.COM_attributes
                0x080096d0       0x24 build/main.o
                0x080096d0                COM_attributes
 .rodata.Blink_attributes
                0x080096f4       0x24 build/main.o
                0x080096f4                Blink_attributes
 .rodata.USBD_FS_ProductStrDescriptor.str1.4
                0x08009718       0x16 build/usbd_desc.o
 .rodata.USBD_FS_ManufacturerStrDescriptor.str1.4
                0x08009718       0x13 build/usbd_desc.o
 .rodata.USBD_FS_ConfigStrDescriptor.str1.4
                0x08009718        0xb build/usbd_desc.o
 .rodata.USBD_FS_InterfaceStrDescriptor.str1.4
                0x08009718        0xe build/usbd_desc.o
 .rodata.APBPrescTable
                0x08009718        0x8 build/system_stm32f4xx.o
                0x08009718                APBPrescTable
 .rodata.AHBPrescTable
                0x08009720       0x10 build/system_stm32f4xx.o
                0x08009720                AHBPrescTable
 .rodata.vTaskStartScheduler.str1.4
                0x08009730        0x5 build/tasks.o
 .rodata.prvCheckForValidListAndQueue.str1.4
                0x08009730        0x5 build/timers.o
 .rodata.xTimerCreateTimerTask.str1.4
                0x08009730        0x8 build/timers.o
 .rodata._vfprintf_r.str1.1
                0x08009730       0x33 c:/Program Files/ARMtoolchain/bin/../lib/gcc/arm-none-eabi/14.2.1/thumb/v7e-m+fp/hard\libc_nano.a(libc_a-nano-vfprintf.o)
                                 0x11 (size before relaxing)
 .rodata._printf_i.str1.1
                0x08009763       0x22 c:/Program Files/ARMtoolchain/bin/../lib/gcc/arm-none-eabi/14.2.1/thumb/v7e-m+fp/hard\libc_nano.a(libc_a-nano-vfprintf_i.o)
 .rodata.log.str1.4
                0x08009763        0x1 c:/Program Files/ARMtoolchain/bin/../lib/gcc/arm-none-eabi/14.2.1/thumb/v7e-m+fp/hard\libm.a(libm_a-w_log.o)
                0x08009788                        . = ALIGN (0x4)
 *fill*         0x08009763        0x1 

.ARM.extab      0x08009764        0x0
                0x08009764                        . = ALIGN (0x4)
 *(.ARM.extab* .gnu.linkonce.armextab.*)
                0x08009764                        . = ALIGN (0x4)

.ARM            0x08009764        0x8
                0x08009764                        . = ALIGN (0x4)
                0x08009764                        __exidx_start = .
 *(.ARM.exidx*)
 .ARM.exidx     0x08009764        0x8 c:/Program Files/ARMtoolchain/bin/../lib/gcc/arm-none-eabi/14.2.1/thumb/v7e-m+fp/hard\libc_nano.a(libc_a-memchr.o)
 .ARM.exidx.text.__udivmoddi4
                0x0800976c        0x0 c:/Program Files/ARMtoolchain/bin/../lib/gcc/arm-none-eabi/14.2.1/thumb/v7e-m+fp/hard\libgcc.a(_udivmoddi4.o)
                                  0x8 (size before relaxing)
                0x0800976c                        __exidx_end = .
                0x0800976c                        . = ALIGN (0x4)

.rel.dyn        0x0800976c        0x0
 .rel.iplt      0x0800976c        0x0 c:/Program Files/ARMtoolchain/bin/../lib/gcc/arm-none-eabi/14.2.1/thumb/v7e-m+fp/hard/crtbegin.o

.preinit_array  0x0800976c        0x0
                0x0800976c                        . = ALIGN (0x4)
                0x0800976c                        PROVIDE (__preinit_array_start = .)
 *(.preinit_array*)
                0x0800976c                        PROVIDE (__preinit_array_end = .)
                0x0800976c                        . = ALIGN (0x4)

.init_array     0x0800976c        0x4
                0x0800976c                        . = ALIGN (0x4)
                0x0800976c                        PROVIDE (__init_array_start = .)
 *(SORT_BY_NAME(.init_array.*))
 *(.init_array*)
 .init_array    0x0800976c        0x4 c:/Program Files/ARMtoolchain/bin/../lib/gcc/arm-none-eabi/14.2.1/thumb/v7e-m+fp/hard/crtbegin.o
                0x08009770                        PROVIDE (__init_array_end = .)
                0x08009770                        . = ALIGN (0x4)

.fini_array     0x08009770        0x4
                0x08009770                        . = ALIGN (0x4)
                [!provide]                        PROVIDE (__fini_array_start = .)
 *(SORT_BY_NAME(.fini_array.*))
 *(.fini_array*)
 .fini_array    0x08009770        0x4 c:/Program Files/ARMtoolchain/bin/../lib/gcc/arm-none-eabi/14.2.1/thumb/v7e-m+fp/hard/crtbegin.o
                [!provide]                        PROVIDE (__fini_array_end = .)
                0x08009774                        . = ALIGN (0x4)
                0x08009774                        _sidata = LOADADDR (.data)

.data           0x20000000      0x17c load address 0x08009774
                0x20000000                        . = ALIGN (0x4)
                0x20000000                        _sdata = .
 *(.data)
 *(.data*)
 .data.GREEN_LED
                0x20000000        0xc build/main.o
                0x20000000                GREEN_LED
 .data.RED_LED  0x2000000c        0xc build/main.o
                0x2000000c                RED_LED
 .data.BLUE_LED
                0x20000018        0xc build/main.o
                0x20000018                BLUE_LED
 .data.USBD_StringSerial
                0x20000024       0x1a build/usbd_desc.o
                0x20000024                USBD_StringSerial
 *fill*         0x2000003e        0x2 
 .data.USBD_LangIDDesc
                0x20000040        0x4 build/usbd_desc.o
                0x20000040                USBD_LangIDDesc
 .data.USBD_FS_DeviceDesc
                0x20000044       0x12 build/usbd_desc.o
                0x20000044                USBD_FS_DeviceDesc
 *fill*         0x20000056        0x2 
 .data.FS_Desc  0x20000058       0x1c build/usbd_desc.o
                0x20000058                FS_Desc
 .data.USBD_Interface_fops_FS
                0x20000074       0x14 build/usbd_cdc_if.o
                0x20000074                USBD_Interface_fops_FS
 .data.uwTickFreq
                0x20000088        0x1 build/stm32f4xx_hal.o
                0x20000088                uwTickFreq
 *fill*         0x20000089        0x3 
 .data.uwTickPrio
                0x2000008c        0x4 build/stm32f4xx_hal.o
                0x2000008c                uwTickPrio
 .data.SystemCoreClock
                0x20000090        0x4 build/system_stm32f4xx.o
                0x20000090                SystemCoreClock
 .data.uxCriticalNesting
                0x20000094        0x4 build/port.o
 .data.USBD_CDC_CfgDesc
                0x20000098       0x43 build/usbd_cdc.o
 *fill*         0x200000db        0x1 
 .data.USBD_CDC
                0x200000dc       0x38 build/usbd_cdc.o
                0x200000dc                USBD_CDC
 .data.USBD_CDC_DeviceQualifierDesc
                0x20000114        0xa build/usbd_cdc.o
 *fill*         0x2000011e        0x2 
 .data.__sglue  0x20000120        0xc c:/Program Files/ARMtoolchain/bin/../lib/gcc/arm-none-eabi/14.2.1/thumb/v7e-m+fp/hard\libc_nano.a(libc_a-findfp.o)
                0x20000120                __sglue
 .data._impure_ptr
                0x2000012c        0x4 c:/Program Files/ARMtoolchain/bin/../lib/gcc/arm-none-eabi/14.2.1/thumb/v7e-m+fp/hard\libc_nano.a(libc_a-impure.o)
                0x2000012c                _impure_ptr
 .data._impure_data
                0x20000130       0x4c c:/Program Files/ARMtoolchain/bin/../lib/gcc/arm-none-eabi/14.2.1/thumb/v7e-m+fp/hard\libc_nano.a(libc_a-impure.o)
                0x20000130                _impure_data
 *(.RamFunc)
 *(.RamFunc*)
                0x2000017c                        . = ALIGN (0x4)
                0x2000017c                        _edata = .

.tm_clone_table
                0x2000017c        0x0 load address 0x080098f0
 .tm_clone_table
                0x2000017c        0x0 c:/Program Files/ARMtoolchain/bin/../lib/gcc/arm-none-eabi/14.2.1/thumb/v7e-m+fp/hard/crtbegin.o
 .tm_clone_table
                0x2000017c        0x0 c:/Program Files/ARMtoolchain/bin/../lib/gcc/arm-none-eabi/14.2.1/thumb/v7e-m+fp/hard/crtend.o

.igot.plt       0x2000017c        0x0 load address 0x080098f0
 .igot.plt      0x2000017c        0x0 c:/Program Files/ARMtoolchain/bin/../lib/gcc/arm-none-eabi/14.2.1/thumb/v7e-m+fp/hard/crtbegin.o
                0x2000017c                        . = ALIGN (0x4)

.bss            0x20000180     0x6284 load address 0x080098f0
                0x20000180                        _sbss = .
                0x20000180                        __bss_start__ = _sbss
 *(.bss)
 *(.bss*)
 .bss.completed.1
                0x20000180        0x1 c:/Program Files/ARMtoolchain/bin/../lib/gcc/arm-none-eabi/14.2.1/thumb/v7e-m+fp/hard/crtbegin.o
 *fill*         0x20000181        0x3 
 .bss.object.0  0x20000184       0x18 c:/Program Files/ARMtoolchain/bin/../lib/gcc/arm-none-eabi/14.2.1/thumb/v7e-m+fp/hard/crtbegin.o
 *fill*         0x2000019c        0x4 
 .bss.TARGET_TEMP
                0x200001a0       0x10 build/main.o
                0x200001a0                TARGET_TEMP
 .bss.ACTUAL_TEMP
                0x200001b0       0x10 build/main.o
                0x200001b0                ACTUAL_TEMP
 .bss.TEMP_manager_handle
                0x200001c0        0x4 build/main.o
                0x200001c0                TEMP_manager_handle
 .bss.COM_manager_handle
                0x200001c4        0x4 build/main.o
                0x200001c4                COM_manager_handle
 .bss.BlinkHandle
                0x200001c8        0x4 build/main.o
                0x200001c8                BlinkHandle
 .bss.htim2     0x200001cc       0x48 build/main.o
                0x200001cc                htim2
 .bss.hadc1     0x20000214       0x48 build/main.o
                0x20000214                hadc1
 .bss.hi2c1     0x2000025c       0x54 build/main.o
                0x2000025c                hi2c1
 .bss.htim11    0x200002b0       0x48 build/stm32f4xx_hal_timebase_tim.o
                0x200002b0                htim11
 .bss.hUsbDeviceFS
                0x200002f8      0x2dc build/usb_device.o
                0x200002f8                hUsbDeviceFS
 .bss.USBD_StrDesc
                0x200005d4      0x200 build/usbd_desc.o
                0x200005d4                USBD_StrDesc
 .bss.UserTxBufferFS
                0x200007d4      0x400 build/usbd_cdc_if.o
                0x200007d4                UserTxBufferFS
 .bss.UserRxBufferFS
                0x20000bd4      0x400 build/usbd_cdc_if.o
                0x20000bd4                UserRxBufferFS
 .bss.mem.0     0x20000fd4      0x220 build/usbd_conf.o
 .bss.hpcd_USB_OTG_FS
                0x200011f4      0x4e4 build/usbd_conf.o
                0x200011f4                hpcd_USB_OTG_FS
 .bss.uwTick    0x200016d8        0x4 build/stm32f4xx_hal.o
                0x200016d8                uwTick
 .bss.xQueueRegistry
                0x200016dc       0x40 build/queue.o
                0x200016dc                xQueueRegistry
 .bss.uxSchedulerSuspended
                0x2000171c        0x4 build/tasks.o
 .bss.xIdleTaskHandle
                0x20001720        0x4 build/tasks.o
 .bss.xNextTaskUnblockTime
                0x20001724        0x4 build/tasks.o
 .bss.uxTaskNumber
                0x20001728        0x4 build/tasks.o
 .bss.xNumOfOverflows
                0x2000172c        0x4 build/tasks.o
 .bss.xYieldPending
                0x20001730        0x4 build/tasks.o
 .bss.xPendedTicks
                0x20001734        0x4 build/tasks.o
 .bss.xSchedulerRunning
                0x20001738        0x4 build/tasks.o
 .bss.uxTopReadyPriority
                0x2000173c        0x4 build/tasks.o
 .bss.xTickCount
                0x20001740        0x4 build/tasks.o
 .bss.uxCurrentNumberOfTasks
                0x20001744        0x4 build/tasks.o
 .bss.xSuspendedTaskList
                0x20001748       0x14 build/tasks.o
 .bss.uxDeletedTasksWaitingCleanUp
                0x2000175c        0x4 build/tasks.o
 .bss.xTasksWaitingTermination
                0x20001760       0x14 build/tasks.o
 .bss.xPendingReadyList
                0x20001774       0x14 build/tasks.o
 .bss.pxOverflowDelayedTaskList
                0x20001788        0x4 build/tasks.o
 .bss.pxDelayedTaskList
                0x2000178c        0x4 build/tasks.o
 .bss.xDelayedTaskList2
                0x20001790       0x14 build/tasks.o
 .bss.xDelayedTaskList1
                0x200017a4       0x14 build/tasks.o
 .bss.pxReadyTasksLists
                0x200017b8      0x460 build/tasks.o
 .bss.pxCurrentTCB
                0x20001c18        0x4 build/tasks.o
                0x20001c18                pxCurrentTCB
 .bss.xStaticTimerQueue.0
                0x20001c1c       0x50 build/timers.o
 .bss.ucStaticTimerQueueStorage.1
                0x20001c6c       0xa0 build/timers.o
 .bss.xLastTime.2
                0x20001d0c        0x4 build/timers.o
 .bss.xTimerTaskHandle
                0x20001d10        0x4 build/timers.o
 .bss.xTimerQueue
                0x20001d14        0x4 build/timers.o
 .bss.pxOverflowTimerList
                0x20001d18        0x4 build/timers.o
 .bss.pxCurrentTimerList
                0x20001d1c        0x4 build/timers.o
 .bss.xActiveTimerList2
                0x20001d20       0x14 build/timers.o
 .bss.xActiveTimerList1
                0x20001d34       0x14 build/timers.o
 .bss.Timer_Stack.0
                0x20001d48      0x400 build/cmsis_os2.o
 .bss.Timer_TCB.1
                0x20002148      0x1a0 build/cmsis_os2.o
 .bss.Idle_Stack.2
                0x200022e8      0x200 build/cmsis_os2.o
 .bss.Idle_TCB.3
                0x200024e8      0x1a0 build/cmsis_os2.o
 .bss.KernelState
                0x20002688        0x4 build/cmsis_os2.o
 .bss.xBlockAllocatedBit
                0x2000268c        0x4 build/heap_4.o
 .bss.xNumberOfSuccessfulFrees
                0x20002690        0x4 build/heap_4.o
 .bss.xNumberOfSuccessfulAllocations
                0x20002694        0x4 build/heap_4.o
 .bss.xMinimumEverFreeBytesRemaining
                0x20002698        0x4 build/heap_4.o
 .bss.xFreeBytesRemaining
                0x2000269c        0x4 build/heap_4.o
 .bss.pxEnd     0x200026a0        0x4 build/heap_4.o
 .bss.xStart    0x200026a4        0x8 build/heap_4.o
 .bss.ucHeap    0x200026ac     0x3c00 build/heap_4.o
 .bss.ulMaxPRIGROUPValue
                0x200062ac        0x4 build/port.o
 .bss.ucMaxSysCallPriority
                0x200062b0        0x1 build/port.o
 .bss.cfgidx.0  0x200062b1        0x1 build/usbd_ctlreq.o
 *fill*         0x200062b2        0x2 
 .bss.__sf      0x200062b4      0x138 c:/Program Files/ARMtoolchain/bin/../lib/gcc/arm-none-eabi/14.2.1/thumb/v7e-m+fp/hard\libc_nano.a(libc_a-findfp.o)
                0x200062b4                __sf
 .bss.__stdio_exit_handler
                0x200063ec        0x4 c:/Program Files/ARMtoolchain/bin/../lib/gcc/arm-none-eabi/14.2.1/thumb/v7e-m+fp/hard\libc_nano.a(libc_a-findfp.o)
                0x200063ec                __stdio_exit_handler
 .bss.errno     0x200063f0        0x4 c:/Program Files/ARMtoolchain/bin/../lib/gcc/arm-none-eabi/14.2.1/thumb/v7e-m+fp/hard\libc_nano.a(libc_a-reent.o)
                0x200063f0                errno
 .bss.__lock___malloc_recursive_mutex
                0x200063f4        0x1 c:/Program Files/ARMtoolchain/bin/../lib/gcc/arm-none-eabi/14.2.1/thumb/v7e-m+fp/hard\libc_nano.a(libc_a-lock.o)
                0x200063f4                __lock___malloc_recursive_mutex
 .bss.__lock___sfp_recursive_mutex
                0x200063f5        0x1 c:/Program Files/ARMtoolchain/bin/../lib/gcc/arm-none-eabi/14.2.1/thumb/v7e-m+fp/hard\libc_nano.a(libc_a-lock.o)
                0x200063f5                __lock___sfp_recursive_mutex
 *fill*         0x200063f6        0x2 
 .bss.__malloc_sbrk_start
                0x200063f8        0x4 c:/Program Files/ARMtoolchain/bin/../lib/gcc/arm-none-eabi/14.2.1/thumb/v7e-m+fp/hard\libc_nano.a(libc_a-mallocr.o)
                0x200063f8                __malloc_sbrk_start
 .bss.__malloc_free_list
                0x200063fc        0x4 c:/Program Files/ARMtoolchain/bin/../lib/gcc/arm-none-eabi/14.2.1/thumb/v7e-m+fp/hard\libc_nano.a(libc_a-mallocr.o)
                0x200063fc                __malloc_free_list
 .bss.heap_end.0
                0x20006400        0x4 c:/Program Files/ARMtoolchain/bin/../lib/gcc/arm-none-eabi/14.2.1/thumb/v7e-m+fp/hard\libnosys.a(sbrk.o)
 *(COMMON)
                0x20006404                        . = ALIGN (0x4)
                0x20006404                        _ebss = .
                0x20006404                        __bss_end__ = _ebss

._user_heap_stack
                0x20006404      0x604 load address 0x080098f0
                0x20006408                        . = ALIGN (0x8)
 *fill*         0x20006404        0x4 
                0x20006408                        PROVIDE (end = .)
                [!provide]                        PROVIDE (_end = .)
                0x20006608                        . = (. + _Min_Heap_Size)
 *fill*         0x20006408      0x200 
                0x20006a08                        . = (. + _Min_Stack_Size)
 *fill*         0x20006608      0x400 
                0x20006a08                        . = ALIGN (0x8)

/DISCARD/
 libc.a(*)
 libm.a(*)
 libgcc.a(*)

.ARM.attributes
                0x00000000       0x30
 *(.ARM.attributes)
 .ARM.attributes
                0x00000000       0x22 c:/Program Files/ARMtoolchain/bin/../lib/gcc/arm-none-eabi/14.2.1/thumb/v7e-m+fp/hard/crti.o
 .ARM.attributes
                0x00000022       0x34 c:/Program Files/ARMtoolchain/bin/../lib/gcc/arm-none-eabi/14.2.1/thumb/v7e-m+fp/hard/crtbegin.o
 .ARM.attributes
                0x00000056       0x34 build/main.o
 .ARM.attributes
                0x0000008a       0x34 build/thermal_control.o
 .ARM.attributes
                0x000000be       0x34 build/stm32f4xx_it.o
 .ARM.attributes
                0x000000f2       0x34 build/stm32f4xx_hal_msp.o
 .ARM.attributes
                0x00000126       0x34 build/stm32f4xx_hal_timebase_tim.o
 .ARM.attributes
                0x0000015a       0x34 build/usb_device.o
 .ARM.attributes
                0x0000018e       0x34 build/usbd_desc.o
 .ARM.attributes
                0x000001c2       0x34 build/usbd_cdc_if.o
 .ARM.attributes
                0x000001f6       0x34 build/usbd_conf.o
 .ARM.attributes
                0x0000022a       0x34 build/stm32f4xx_hal_tim.o
 .ARM.attributes
                0x0000025e       0x34 build/stm32f4xx_hal_tim_ex.o
 .ARM.attributes
                0x00000292       0x34 build/stm32f4xx_hal_pcd.o
 .ARM.attributes
                0x000002c6       0x34 build/stm32f4xx_hal_pcd_ex.o
 .ARM.attributes
                0x000002fa       0x34 build/stm32f4xx_ll_usb.o
 .ARM.attributes
                0x0000032e       0x34 build/stm32f4xx_hal_rcc.o
 .ARM.attributes
                0x00000362       0x34 build/stm32f4xx_hal_gpio.o
 .ARM.attributes
                0x00000396       0x34 build/stm32f4xx_hal_cortex.o
 .ARM.attributes
                0x000003ca       0x34 build/stm32f4xx_hal.o
 .ARM.attributes
                0x000003fe       0x34 build/stm32f4xx_hal_adc.o
 .ARM.attributes
                0x00000432       0x34 build/stm32f4xx_hal_i2c.o
 .ARM.attributes
                0x00000466       0x34 build/system_stm32f4xx.o
 .ARM.attributes
                0x0000049a       0x34 build/list.o
 .ARM.attributes
                0x000004ce       0x34 build/queue.o
 .ARM.attributes
                0x00000502       0x34 build/tasks.o
 .ARM.attributes
                0x00000536       0x34 build/timers.o
 .ARM.attributes
                0x0000056a       0x34 build/cmsis_os2.o
 .ARM.attributes
                0x0000059e       0x34 build/heap_4.o
 .ARM.attributes
                0x000005d2       0x34 build/port.o
 .ARM.attributes
                0x00000606       0x34 build/usbd_core.o
 .ARM.attributes
                0x0000063a       0x34 build/usbd_ctlreq.o
 .ARM.attributes
                0x0000066e       0x34 build/usbd_ioreq.o
 .ARM.attributes
                0x000006a2       0x34 build/usbd_cdc.o
 .ARM.attributes
                0x000006d6       0x21 build/startup_stm32f401xc.o
 .ARM.attributes
                0x000006f7       0x34 c:/Program Files/ARMtoolchain/bin/../lib/gcc/arm-none-eabi/14.2.1/thumb/v7e-m+fp/hard\libc_nano.a(libc_a-findfp.o)
 .ARM.attributes
                0x0000072b       0x34 c:/Program Files/ARMtoolchain/bin/../lib/gcc/arm-none-eabi/14.2.1/thumb/v7e-m+fp/hard\libc_nano.a(libc_a-fwalk.o)
 .ARM.attributes
                0x0000075f       0x34 c:/Program Files/ARMtoolchain/bin/../lib/gcc/arm-none-eabi/14.2.1/thumb/v7e-m+fp/hard\libc_nano.a(libc_a-printf.o)
 .ARM.attributes
                0x00000793       0x34 c:/Program Files/ARMtoolchain/bin/../lib/gcc/arm-none-eabi/14.2.1/thumb/v7e-m+fp/hard\libc_nano.a(libc_a-puts.o)
 .ARM.attributes
                0x000007c7       0x34 c:/Program Files/ARMtoolchain/bin/../lib/gcc/arm-none-eabi/14.2.1/thumb/v7e-m+fp/hard\libc_nano.a(libc_a-stdio.o)
 .ARM.attributes
                0x000007fb       0x34 c:/Program Files/ARMtoolchain/bin/../lib/gcc/arm-none-eabi/14.2.1/thumb/v7e-m+fp/hard\libc_nano.a(libc_a-wbuf.o)
 .ARM.attributes
                0x0000082f       0x34 c:/Program Files/ARMtoolchain/bin/../lib/gcc/arm-none-eabi/14.2.1/thumb/v7e-m+fp/hard\libc_nano.a(libc_a-wsetup.o)
 .ARM.attributes
                0x00000863       0x34 c:/Program Files/ARMtoolchain/bin/../lib/gcc/arm-none-eabi/14.2.1/thumb/v7e-m+fp/hard\libc_nano.a(libc_a-memset.o)
 .ARM.attributes
                0x00000897       0x34 c:/Program Files/ARMtoolchain/bin/../lib/gcc/arm-none-eabi/14.2.1/thumb/v7e-m+fp/hard\libc_nano.a(libc_a-closer.o)
 .ARM.attributes
                0x000008cb       0x34 c:/Program Files/ARMtoolchain/bin/../lib/gcc/arm-none-eabi/14.2.1/thumb/v7e-m+fp/hard\libc_nano.a(libc_a-reent.o)
 .ARM.attributes
                0x000008ff       0x34 c:/Program Files/ARMtoolchain/bin/../lib/gcc/arm-none-eabi/14.2.1/thumb/v7e-m+fp/hard\libc_nano.a(libc_a-impure.o)
 .ARM.attributes
                0x00000933       0x34 c:/Program Files/ARMtoolchain/bin/../lib/gcc/arm-none-eabi/14.2.1/thumb/v7e-m+fp/hard\libc_nano.a(libc_a-lseekr.o)
 .ARM.attributes
                0x00000967       0x34 c:/Program Files/ARMtoolchain/bin/../lib/gcc/arm-none-eabi/14.2.1/thumb/v7e-m+fp/hard\libc_nano.a(libc_a-readr.o)
 .ARM.attributes
                0x0000099b       0x34 c:/Program Files/ARMtoolchain/bin/../lib/gcc/arm-none-eabi/14.2.1/thumb/v7e-m+fp/hard\libc_nano.a(libc_a-writer.o)
 .ARM.attributes
                0x000009cf       0x34 c:/Program Files/ARMtoolchain/bin/../lib/gcc/arm-none-eabi/14.2.1/thumb/v7e-m+fp/hard\libc_nano.a(libc_a-init.o)
 .ARM.attributes
                0x00000a03       0x34 c:/Program Files/ARMtoolchain/bin/../lib/gcc/arm-none-eabi/14.2.1/thumb/v7e-m+fp/hard\libc_nano.a(libc_a-lock.o)
 .ARM.attributes
                0x00000a37       0x34 c:/Program Files/ARMtoolchain/bin/../lib/gcc/arm-none-eabi/14.2.1/thumb/v7e-m+fp/hard\libc_nano.a(libc_a-memcpy-stub.o)
 .ARM.attributes
                0x00000a6b       0x34 c:/Program Files/ARMtoolchain/bin/../lib/gcc/arm-none-eabi/14.2.1/thumb/v7e-m+fp/hard\libc_nano.a(libc_a-freer.o)
 .ARM.attributes
                0x00000a9f       0x34 c:/Program Files/ARMtoolchain/bin/../lib/gcc/arm-none-eabi/14.2.1/thumb/v7e-m+fp/hard\libc_nano.a(libc_a-mallocr.o)
 .ARM.attributes
                0x00000ad3       0x34 c:/Program Files/ARMtoolchain/bin/../lib/gcc/arm-none-eabi/14.2.1/thumb/v7e-m+fp/hard\libc_nano.a(libc_a-mlock.o)
 .ARM.attributes
                0x00000b07       0x34 c:/Program Files/ARMtoolchain/bin/../lib/gcc/arm-none-eabi/14.2.1/thumb/v7e-m+fp/hard\libc_nano.a(libc_a-nano-vfprintf.o)
 .ARM.attributes
                0x00000b3b       0x34 c:/Program Files/ARMtoolchain/bin/../lib/gcc/arm-none-eabi/14.2.1/thumb/v7e-m+fp/hard\libc_nano.a(libc_a-nano-vfprintf_i.o)
 .ARM.attributes
                0x00000b6f       0x34 c:/Program Files/ARMtoolchain/bin/../lib/gcc/arm-none-eabi/14.2.1/thumb/v7e-m+fp/hard\libc_nano.a(libc_a-fflush.o)
 .ARM.attributes
                0x00000ba3       0x34 c:/Program Files/ARMtoolchain/bin/../lib/gcc/arm-none-eabi/14.2.1/thumb/v7e-m+fp/hard\libc_nano.a(libc_a-makebuf.o)
 .ARM.attributes
                0x00000bd7       0x34 c:/Program Files/ARMtoolchain/bin/../lib/gcc/arm-none-eabi/14.2.1/thumb/v7e-m+fp/hard\libc_nano.a(libc_a-fstatr.o)
 .ARM.attributes
                0x00000c0b       0x34 c:/Program Files/ARMtoolchain/bin/../lib/gcc/arm-none-eabi/14.2.1/thumb/v7e-m+fp/hard\libc_nano.a(libc_a-isattyr.o)
 .ARM.attributes
                0x00000c3f       0x34 c:/Program Files/ARMtoolchain/bin/../lib/gcc/arm-none-eabi/14.2.1/thumb/v7e-m+fp/hard\libc_nano.a(libc_a-sbrkr.o)
 .ARM.attributes
                0x00000c73       0x1c c:/Program Files/ARMtoolchain/bin/../lib/gcc/arm-none-eabi/14.2.1/thumb/v7e-m+fp/hard\libc_nano.a(libc_a-memchr.o)
 .ARM.attributes
                0x00000c8f       0x34 c:/Program Files/ARMtoolchain/bin/../lib/gcc/arm-none-eabi/14.2.1/thumb/v7e-m+fp/hard\libm.a(libm_a-w_log.o)
 .ARM.attributes
                0x00000cc3       0x34 c:/Program Files/ARMtoolchain/bin/../lib/gcc/arm-none-eabi/14.2.1/thumb/v7e-m+fp/hard\libm.a(libm_a-s_nan.o)
 .ARM.attributes
                0x00000cf7       0x34 c:/Program Files/ARMtoolchain/bin/../lib/gcc/arm-none-eabi/14.2.1/thumb/v7e-m+fp/hard\libm.a(libm_a-s_round.o)
 .ARM.attributes
                0x00000d2b       0x34 c:/Program Files/ARMtoolchain/bin/../lib/gcc/arm-none-eabi/14.2.1/thumb/v7e-m+fp/hard\libm.a(libm_a-e_log.o)
 .ARM.attributes
                0x00000d5f       0x34 c:/Program Files/ARMtoolchain/bin/../lib/gcc/arm-none-eabi/14.2.1/thumb/v7e-m+fp/hard\libnosys.a(close.o)
 .ARM.attributes
                0x00000d93       0x34 c:/Program Files/ARMtoolchain/bin/../lib/gcc/arm-none-eabi/14.2.1/thumb/v7e-m+fp/hard\libnosys.a(fstat.o)
 .ARM.attributes
                0x00000dc7       0x34 c:/Program Files/ARMtoolchain/bin/../lib/gcc/arm-none-eabi/14.2.1/thumb/v7e-m+fp/hard\libnosys.a(isatty.o)
 .ARM.attributes
                0x00000dfb       0x34 c:/Program Files/ARMtoolchain/bin/../lib/gcc/arm-none-eabi/14.2.1/thumb/v7e-m+fp/hard\libnosys.a(lseek.o)
 .ARM.attributes
                0x00000e2f       0x34 c:/Program Files/ARMtoolchain/bin/../lib/gcc/arm-none-eabi/14.2.1/thumb/v7e-m+fp/hard\libnosys.a(read.o)
 .ARM.attributes
                0x00000e63       0x34 c:/Program Files/ARMtoolchain/bin/../lib/gcc/arm-none-eabi/14.2.1/thumb/v7e-m+fp/hard\libnosys.a(sbrk.o)
 .ARM.attributes
                0x00000e97       0x22 c:/Program Files/ARMtoolchain/bin/../lib/gcc/arm-none-eabi/14.2.1/thumb/v7e-m+fp/hard\libgcc.a(_arm_addsubdf3.o)
 .ARM.attributes
                0x00000eb9       0x22 c:/Program Files/ARMtoolchain/bin/../lib/gcc/arm-none-eabi/14.2.1/thumb/v7e-m+fp/hard\libgcc.a(_arm_muldivdf3.o)
 .ARM.attributes
                0x00000edb       0x22 c:/Program Files/ARMtoolchain/bin/../lib/gcc/arm-none-eabi/14.2.1/thumb/v7e-m+fp/hard\libgcc.a(_arm_cmpdf2.o)
 .ARM.attributes
                0x00000efd       0x22 c:/Program Files/ARMtoolchain/bin/../lib/gcc/arm-none-eabi/14.2.1/thumb/v7e-m+fp/hard\libgcc.a(_arm_unorddf2.o)
 .ARM.attributes
                0x00000f1f       0x22 c:/Program Files/ARMtoolchain/bin/../lib/gcc/arm-none-eabi/14.2.1/thumb/v7e-m+fp/hard\libgcc.a(_arm_fixunsdfsi.o)
 .ARM.attributes
                0x00000f41       0x22 c:/Program Files/ARMtoolchain/bin/../lib/gcc/arm-none-eabi/14.2.1/thumb/v7e-m+fp/hard\libgcc.a(_aeabi_uldivmod.o)
 .ARM.attributes
                0x00000f63       0x34 c:/Program Files/ARMtoolchain/bin/../lib/gcc/arm-none-eabi/14.2.1/thumb/v7e-m+fp/hard\libgcc.a(_udivmoddi4.o)
 .ARM.attributes
                0x00000f97       0x22 c:/Program Files/ARMtoolchain/bin/../lib/gcc/arm-none-eabi/14.2.1/thumb/v7e-m+fp/hard\libgcc.a(_dvmd_tls.o)
 .ARM.attributes
                0x00000fb9       0x34 c:/Program Files/ARMtoolchain/bin/../lib/gcc/arm-none-eabi/14.2.1/thumb/v7e-m+fp/hard\libc_nano.a(libc_a-errno.o)
 .ARM.attributes
                0x00000fed       0x34 c:/Program Files/ARMtoolchain/bin/../lib/gcc/arm-none-eabi/14.2.1/thumb/v7e-m+fp/hard/crtend.o
 .ARM.attributes
                0x00001021       0x22 c:/Program Files/ARMtoolchain/bin/../lib/gcc/arm-none-eabi/14.2.1/thumb/v7e-m+fp/hard/crtn.o
OUTPUT(build/USB.elf elf32-littlearm)
LOAD linker stubs
LOAD c:/Program Files/ARMtoolchain/bin/../lib/gcc/arm-none-eabi/14.2.1/thumb/v7e-m+fp/hard\libc.a
LOAD c:/Program Files/ARMtoolchain/bin/../lib/gcc/arm-none-eabi/14.2.1/thumb/v7e-m+fp/hard\libm.a
LOAD c:/Program Files/ARMtoolchain/bin/../lib/gcc/arm-none-eabi/14.2.1/thumb/v7e-m+fp/hard\libgcc.a

.debug_info     0x00000000    0x30e3a
 .debug_info    0x00000000     0x2fa1 build/main.o
 .debug_info    0x00002fa1      0x300 build/thermal_control.o
 .debug_info    0x000032a1      0xd41 build/stm32f4xx_it.o
 .debug_info    0x00003fe2     0x1549 build/stm32f4xx_hal_msp.o
 .debug_info    0x0000552b      0xd59 build/stm32f4xx_hal_timebase_tim.o
 .debug_info    0x00006284      0x894 build/usb_device.o
 .debug_info    0x00006b18      0x668 build/usbd_desc.o
 .debug_info    0x00007180      0xb08 build/usbd_cdc_if.o
 .debug_info    0x00007c88     0x2453 build/usbd_conf.o
 .debug_info    0x0000a0db     0x4198 build/stm32f4xx_hal_tim.o
 .debug_info    0x0000e273     0x1d8f build/stm32f4xx_hal_tim_ex.o
 .debug_info    0x00010002     0x1f2f build/stm32f4xx_hal_pcd.o
 .debug_info    0x00011f31      0x7cb build/stm32f4xx_hal_pcd_ex.o
 .debug_info    0x000126fc     0x21f9 build/stm32f4xx_ll_usb.o
 .debug_info    0x000148f5      0xc36 build/stm32f4xx_hal_rcc.o
 .debug_info    0x0001552b      0x872 build/stm32f4xx_hal_gpio.o
 .debug_info    0x00015d9d     0x114a build/stm32f4xx_hal_cortex.o
 .debug_info    0x00016ee7      0xa8a build/stm32f4xx_hal.o
 .debug_info    0x00017971     0x103d build/stm32f4xx_hal_adc.o
 .debug_info    0x000189ae     0x3c18 build/stm32f4xx_hal_i2c.o
 .debug_info    0x0001c5c6      0x5e5 build/system_stm32f4xx.o
 .debug_info    0x0001cbab      0x30f build/list.o
 .debug_info    0x0001ceba     0x2a48 build/queue.o
 .debug_info    0x0001f902     0x3be6 build/tasks.o
 .debug_info    0x000234e8     0x24c1 build/timers.o
 .debug_info    0x000259a9     0x5ab3 build/cmsis_os2.o
 .debug_info    0x0002b45c      0x60c build/heap_4.o
 .debug_info    0x0002ba68      0x5c2 build/port.o
 .debug_info    0x0002c02a     0x146e build/usbd_core.o
 .debug_info    0x0002d498     0x15e4 build/usbd_ctlreq.o
 .debug_info    0x0002ea7c      0xa19 build/usbd_ioreq.o
 .debug_info    0x0002f495     0x1975 build/usbd_cdc.o
 .debug_info    0x00030e0a       0x30 build/startup_stm32f401xc.o

.debug_abbrev   0x00000000     0x5921
 .debug_abbrev  0x00000000      0x40f build/main.o
 .debug_abbrev  0x0000040f      0x127 build/thermal_control.o
 .debug_abbrev  0x00000536      0x1ac build/stm32f4xx_it.o
 .debug_abbrev  0x000006e2      0x229 build/stm32f4xx_hal_msp.o
 .debug_abbrev  0x0000090b      0x23e build/stm32f4xx_hal_timebase_tim.o
 .debug_abbrev  0x00000b49      0x19c build/usb_device.o
 .debug_abbrev  0x00000ce5      0x208 build/usbd_desc.o
 .debug_abbrev  0x00000eed      0x2bc build/usbd_cdc_if.o
 .debug_abbrev  0x000011a9      0x348 build/usbd_conf.o
 .debug_abbrev  0x000014f1      0x2ce build/stm32f4xx_hal_tim.o
 .debug_abbrev  0x000017bf      0x2c8 build/stm32f4xx_hal_tim_ex.o
 .debug_abbrev  0x00001a87      0x2e7 build/stm32f4xx_hal_pcd.o
 .debug_abbrev  0x00001d6e      0x1c5 build/stm32f4xx_hal_pcd_ex.o
 .debug_abbrev  0x00001f33      0x344 build/stm32f4xx_ll_usb.o
 .debug_abbrev  0x00002277      0x2de build/stm32f4xx_hal_rcc.o
 .debug_abbrev  0x00002555      0x22b build/stm32f4xx_hal_gpio.o
 .debug_abbrev  0x00002780      0x3ca build/stm32f4xx_hal_cortex.o
 .debug_abbrev  0x00002b4a      0x275 build/stm32f4xx_hal.o
 .debug_abbrev  0x00002dbf      0x287 build/stm32f4xx_hal_adc.o
 .debug_abbrev  0x00003046      0x339 build/stm32f4xx_hal_i2c.o
 .debug_abbrev  0x0000337f      0x11b build/system_stm32f4xx.o
 .debug_abbrev  0x0000349a      0x124 build/list.o
 .debug_abbrev  0x000035be      0x431 build/queue.o
 .debug_abbrev  0x000039ef      0x4b5 build/tasks.o
 .debug_abbrev  0x00003ea4      0x40e build/timers.o
 .debug_abbrev  0x000042b2      0x615 build/cmsis_os2.o
 .debug_abbrev  0x000048c7      0x27a build/heap_4.o
 .debug_abbrev  0x00004b41      0x2af build/port.o
 .debug_abbrev  0x00004df0      0x2f7 build/usbd_core.o
 .debug_abbrev  0x000050e7      0x359 build/usbd_ctlreq.o
 .debug_abbrev  0x00005440      0x195 build/usbd_ioreq.o
 .debug_abbrev  0x000055d5      0x32f build/usbd_cdc.o
 .debug_abbrev  0x00005904       0x1d build/startup_stm32f401xc.o

.debug_loc      0x00000000    0x276d3
 .debug_loc     0x00000000      0x51f build/main.o
 .debug_loc     0x0000051f      0x1ec build/thermal_control.o
 .debug_loc     0x0000070b       0x40 build/stm32f4xx_it.o
 .debug_loc     0x0000074b      0x2d3 build/stm32f4xx_hal_msp.o
 .debug_loc     0x00000a1e      0x10f build/stm32f4xx_hal_timebase_tim.o
 .debug_loc     0x00000b2d       0x20 build/usb_device.o
 .debug_loc     0x00000b4d      0x4e7 build/usbd_desc.o
 .debug_loc     0x00001034      0x1f3 build/usbd_cdc_if.o
 .debug_loc     0x00001227     0x10c2 build/usbd_conf.o
 .debug_loc     0x000022e9     0x6186 build/stm32f4xx_hal_tim.o
 .debug_loc     0x0000846f     0x2309 build/stm32f4xx_hal_tim_ex.o
 .debug_loc     0x0000a778     0x1832 build/stm32f4xx_hal_pcd.o
 .debug_loc     0x0000bfaa      0x13d build/stm32f4xx_hal_pcd_ex.o
 .debug_loc     0x0000c0e7     0x29c3 build/stm32f4xx_ll_usb.o
 .debug_loc     0x0000eaaa      0x712 build/stm32f4xx_hal_rcc.o
 .debug_loc     0x0000f1bc      0x60b build/stm32f4xx_hal_gpio.o
 .debug_loc     0x0000f7c7      0x8ff build/stm32f4xx_hal_cortex.o
 .debug_loc     0x000100c6      0x1f9 build/stm32f4xx_hal.o
 .debug_loc     0x000102bf      0xf33 build/stm32f4xx_hal_adc.o
 .debug_loc     0x000111f2     0x545a build/stm32f4xx_hal_i2c.o
 .debug_loc     0x0001664c      0x166 build/system_stm32f4xx.o
 .debug_loc     0x000167b2       0xeb build/list.o
 .debug_loc     0x0001689d     0x212d build/queue.o
 .debug_loc     0x000189ca     0x2c6c build/tasks.o
 .debug_loc     0x0001b636     0x170b build/timers.o
 .debug_loc     0x0001cd41     0x65e1 build/cmsis_os2.o
 .debug_loc     0x00023322      0x51c build/heap_4.o
 .debug_loc     0x0002383e      0x1c6 build/port.o
 .debug_loc     0x00023a04     0x115f build/usbd_core.o
 .debug_loc     0x00024b63     0x1aee build/usbd_ctlreq.o
 .debug_loc     0x00026651      0x3f8 build/usbd_ioreq.o
 .debug_loc     0x00026a49      0xc8a build/usbd_cdc.o

.debug_aranges  0x00000000     0x1cc0
 .debug_aranges
                0x00000000       0x90 build/main.o
 .debug_aranges
                0x00000090       0x30 build/thermal_control.o
 .debug_aranges
                0x000000c0       0x58 build/stm32f4xx_it.o
 .debug_aranges
                0x00000118       0x58 build/stm32f4xx_hal_msp.o
 .debug_aranges
                0x00000170       0x30 build/stm32f4xx_hal_timebase_tim.o
 .debug_aranges
                0x000001a0       0x20 build/usb_device.o
 .debug_aranges
                0x000001c0       0x60 build/usbd_desc.o
 .debug_aranges
                0x00000220       0x48 build/usbd_cdc_if.o
 .debug_aranges
                0x00000268      0x110 build/usbd_conf.o
 .debug_aranges
                0x00000378      0x3d0 build/stm32f4xx_hal_tim.o
 .debug_aranges
                0x00000748      0x168 build/stm32f4xx_hal_tim_ex.o
 .debug_aranges
                0x000008b0      0x148 build/stm32f4xx_hal_pcd.o
 .debug_aranges
                0x000009f8       0x38 build/stm32f4xx_hal_pcd_ex.o
 .debug_aranges
                0x00000a30      0x1a0 build/stm32f4xx_ll_usb.o
 .debug_aranges
                0x00000bd0       0x88 build/stm32f4xx_hal_rcc.o
 .debug_aranges
                0x00000c58       0x58 build/stm32f4xx_hal_gpio.o
 .debug_aranges
                0x00000cb0       0xf8 build/stm32f4xx_hal_cortex.o
 .debug_aranges
                0x00000da8       0xf0 build/stm32f4xx_hal.o
 .debug_aranges
                0x00000e98       0xe8 build/stm32f4xx_hal_adc.o
 .debug_aranges
                0x00000f80      0x2a8 build/stm32f4xx_hal_i2c.o
 .debug_aranges
                0x00001228       0x28 build/system_stm32f4xx.o
 .debug_aranges
                0x00001250       0x40 build/list.o
 .debug_aranges
                0x00001290      0x158 build/queue.o
 .debug_aranges
                0x000013e8      0x208 build/tasks.o
 .debug_aranges
                0x000015f0       0xf0 build/timers.o
 .debug_aranges
                0x000016e0      0x2a0 build/cmsis_os2.o
 .debug_aranges
                0x00001980       0x58 build/heap_4.o
 .debug_aranges
                0x000019d8       0x80 build/port.o
 .debug_aranges
                0x00001a58       0xd8 build/usbd_core.o
 .debug_aranges
                0x00001b30       0x88 build/usbd_ctlreq.o
 .debug_aranges
                0x00001bb8       0x50 build/usbd_ioreq.o
 .debug_aranges
                0x00001c08       0x90 build/usbd_cdc.o
 .debug_aranges
                0x00001c98       0x28 build/startup_stm32f401xc.o

.debug_ranges   0x00000000     0x1d40
 .debug_ranges  0x00000000       0xb0 build/main.o
 .debug_ranges  0x000000b0       0x20 build/thermal_control.o
 .debug_ranges  0x000000d0       0x48 build/stm32f4xx_it.o
 .debug_ranges  0x00000118       0x48 build/stm32f4xx_hal_msp.o
 .debug_ranges  0x00000160       0x20 build/stm32f4xx_hal_timebase_tim.o
 .debug_ranges  0x00000180       0x10 build/usb_device.o
 .debug_ranges  0x00000190       0x50 build/usbd_desc.o
 .debug_ranges  0x000001e0       0x38 build/usbd_cdc_if.o
 .debug_ranges  0x00000218      0x100 build/usbd_conf.o
 .debug_ranges  0x00000318      0x3c0 build/stm32f4xx_hal_tim.o
 .debug_ranges  0x000006d8      0x158 build/stm32f4xx_hal_tim_ex.o
 .debug_ranges  0x00000830      0x138 build/stm32f4xx_hal_pcd.o
 .debug_ranges  0x00000968       0x28 build/stm32f4xx_hal_pcd_ex.o
 .debug_ranges  0x00000990      0x190 build/stm32f4xx_ll_usb.o
 .debug_ranges  0x00000b20       0x90 build/stm32f4xx_hal_rcc.o
 .debug_ranges  0x00000bb0       0x48 build/stm32f4xx_hal_gpio.o
 .debug_ranges  0x00000bf8       0xe8 build/stm32f4xx_hal_cortex.o
 .debug_ranges  0x00000ce0       0xe0 build/stm32f4xx_hal.o
 .debug_ranges  0x00000dc0       0xd8 build/stm32f4xx_hal_adc.o
 .debug_ranges  0x00000e98      0x2b0 build/stm32f4xx_hal_i2c.o
 .debug_ranges  0x00001148       0x18 build/system_stm32f4xx.o
 .debug_ranges  0x00001160       0x30 build/list.o
 .debug_ranges  0x00001190      0x218 build/queue.o
 .debug_ranges  0x000013a8      0x338 build/tasks.o
 .debug_ranges  0x000016e0       0xe0 build/timers.o
 .debug_ranges  0x000017c0      0x290 build/cmsis_os2.o
 .debug_ranges  0x00001a50       0x48 build/heap_4.o
 .debug_ranges  0x00001a98       0x88 build/port.o
 .debug_ranges  0x00001b20       0xc8 build/usbd_core.o
 .debug_ranges  0x00001be8       0x78 build/usbd_ctlreq.o
 .debug_ranges  0x00001c60       0x40 build/usbd_ioreq.o
 .debug_ranges  0x00001ca0       0x80 build/usbd_cdc.o
 .debug_ranges  0x00001d20       0x20 build/startup_stm32f401xc.o

.debug_line     0x00000000    0x1f030
 .debug_line    0x00000000      0xaba build/main.o
 .debug_line    0x00000aba      0x1ac build/thermal_control.o
 .debug_line    0x00000c66      0x25d build/stm32f4xx_it.o
 .debug_line    0x00000ec3      0x3d3 build/stm32f4xx_hal_msp.o
 .debug_line    0x00001296      0x2a2 build/stm32f4xx_hal_timebase_tim.o
 .debug_line    0x00001538      0x1f3 build/usb_device.o
 .debug_line    0x0000172b      0x30e build/usbd_desc.o
 .debug_line    0x00001a39      0x251 build/usbd_cdc_if.o
 .debug_line    0x00001c8a      0x7ea build/usbd_conf.o
 .debug_line    0x00002474     0x4601 build/stm32f4xx_hal_tim.o
 .debug_line    0x00006a75     0x19bd build/stm32f4xx_hal_tim_ex.o
 .debug_line    0x00008432     0x1408 build/stm32f4xx_hal_pcd.o
 .debug_line    0x0000983a      0x27a build/stm32f4xx_hal_pcd_ex.o
 .debug_line    0x00009ab4     0x1ea0 build/stm32f4xx_ll_usb.o
 .debug_line    0x0000b954      0xba3 build/stm32f4xx_hal_rcc.o
 .debug_line    0x0000c4f7      0x693 build/stm32f4xx_hal_gpio.o
 .debug_line    0x0000cb8a      0x804 build/stm32f4xx_hal_cortex.o
 .debug_line    0x0000d38e      0x541 build/stm32f4xx_hal.o
 .debug_line    0x0000d8cf      0xfa0 build/stm32f4xx_hal_adc.o
 .debug_line    0x0000e86f     0x53b9 build/stm32f4xx_hal_i2c.o
 .debug_line    0x00013c28      0x227 build/system_stm32f4xx.o
 .debug_line    0x00013e4f      0x32f build/list.o
 .debug_line    0x0001417e     0x1ca4 build/queue.o
 .debug_line    0x00015e22     0x2803 build/tasks.o
 .debug_line    0x00018625      0xdd7 build/timers.o
 .debug_line    0x000193fc     0x2bca build/cmsis_os2.o
 .debug_line    0x0001bfc6      0x6ca build/heap_4.o
 .debug_line    0x0001c690      0x5fc build/port.o
 .debug_line    0x0001cc8c      0x9b2 build/usbd_core.o
 .debug_line    0x0001d63e      0xd05 build/usbd_ctlreq.o
 .debug_line    0x0001e343      0x280 build/usbd_ioreq.o
 .debug_line    0x0001e5c3      0x9fa build/usbd_cdc.o
 .debug_line    0x0001efbd       0x73 build/startup_stm32f401xc.o

.debug_str      0x00000000     0x9885
 .debug_str     0x00000000     0x9885 build/main.o
                               0x1dd4 (size before relaxing)
 .debug_str     0x00009885      0x26f build/thermal_control.o
 .debug_str     0x00009885      0xb15 build/stm32f4xx_it.o
 .debug_str     0x00009885     0x10c8 build/stm32f4xx_hal_msp.o
 .debug_str     0x00009885      0xce4 build/stm32f4xx_hal_timebase_tim.o
 .debug_str     0x00009885      0x69c build/usb_device.o
 .debug_str     0x00009885      0x435 build/usbd_desc.o
 .debug_str     0x00009885      0x76a build/usbd_cdc_if.o
 .debug_str     0x00009885     0x145b build/usbd_conf.o
 .debug_str     0x00009885     0x16d6 build/stm32f4xx_hal_tim.o
 .debug_str     0x00009885      0xee2 build/stm32f4xx_hal_tim_ex.o
 .debug_str     0x00009885      0xddc build/stm32f4xx_hal_pcd.o
 .debug_str     0x00009885      0x71a build/stm32f4xx_hal_pcd_ex.o
 .debug_str     0x00009885      0xd05 build/stm32f4xx_ll_usb.o
 .debug_str     0x00009885      0x6ef build/stm32f4xx_hal_rcc.o
 .debug_str     0x00009885      0x4c9 build/stm32f4xx_hal_gpio.o
 .debug_str     0x00009885      0xaea build/stm32f4xx_hal_cortex.o
 .debug_str     0x00009885      0x9eb build/stm32f4xx_hal.o
 .debug_str     0x00009885      0x939 build/stm32f4xx_hal_adc.o
 .debug_str     0x00009885     0x1019 build/stm32f4xx_hal_i2c.o
 .debug_str     0x00009885      0x35e build/system_stm32f4xx.o
 .debug_str     0x00009885      0x2d9 build/list.o
 .debug_str     0x00009885      0xcef build/queue.o
 .debug_str     0x00009885     0x1621 build/tasks.o
 .debug_str     0x00009885      0xf43 build/timers.o
 .debug_str     0x00009885     0x235c build/cmsis_os2.o
 .debug_str     0x00009885      0x4f2 build/heap_4.o
 .debug_str     0x00009885      0x459 build/port.o
 .debug_str     0x00009885      0x9ae build/usbd_core.o
 .debug_str     0x00009885      0x7d9 build/usbd_ctlreq.o
 .debug_str     0x00009885      0x6ae build/usbd_ioreq.o
 .debug_str     0x00009885      0xd67 build/usbd_cdc.o
 .debug_str     0x00009885       0x59 build/startup_stm32f401xc.o

.comment        0x00000000       0x45
 .comment       0x00000000       0x45 build/main.o
                                 0x46 (size before relaxing)
 .comment       0x00000045       0x46 build/thermal_control.o
 .comment       0x00000045       0x46 build/stm32f4xx_it.o
 .comment       0x00000045       0x46 build/stm32f4xx_hal_msp.o
 .comment       0x00000045       0x46 build/stm32f4xx_hal_timebase_tim.o
 .comment       0x00000045       0x46 build/usb_device.o
 .comment       0x00000045       0x46 build/usbd_desc.o
 .comment       0x00000045       0x46 build/usbd_cdc_if.o
 .comment       0x00000045       0x46 build/usbd_conf.o
 .comment       0x00000045       0x46 build/stm32f4xx_hal_tim.o
 .comment       0x00000045       0x46 build/stm32f4xx_hal_tim_ex.o
 .comment       0x00000045       0x46 build/stm32f4xx_hal_pcd.o
 .comment       0x00000045       0x46 build/stm32f4xx_hal_pcd_ex.o
 .comment       0x00000045       0x46 build/stm32f4xx_ll_usb.o
 .comment       0x00000045       0x46 build/stm32f4xx_hal_rcc.o
 .comment       0x00000045       0x46 build/stm32f4xx_hal_gpio.o
 .comment       0x00000045       0x46 build/stm32f4xx_hal_cortex.o
 .comment       0x00000045       0x46 build/stm32f4xx_hal.o
 .comment       0x00000045       0x46 build/stm32f4xx_hal_adc.o
 .comment       0x00000045       0x46 build/stm32f4xx_hal_i2c.o
 .comment       0x00000045       0x46 build/system_stm32f4xx.o
 .comment       0x00000045       0x46 build/list.o
 .comment       0x00000045       0x46 build/queue.o
 .comment       0x00000045       0x46 build/tasks.o
 .comment       0x00000045       0x46 build/timers.o
 .comment       0x00000045       0x46 build/cmsis_os2.o
 .comment       0x00000045       0x46 build/heap_4.o
 .comment       0x00000045       0x46 build/port.o
 .comment       0x00000045       0x46 build/usbd_core.o
 .comment       0x00000045       0x46 build/usbd_ctlreq.o
 .comment       0x00000045       0x46 build/usbd_ioreq.o
 .comment       0x00000045       0x46 build/usbd_cdc.o

.debug_frame    0x00000000     0x5e50
 .debug_frame   0x00000000      0x1a4 build/main.o
 .debug_frame   0x000001a4       0x58 build/thermal_control.o
 .debug_frame   0x000001fc       0xa0 build/stm32f4xx_it.o
 .debug_frame   0x0000029c       0xe8 build/stm32f4xx_hal_msp.o
 .debug_frame   0x00000384       0x54 build/stm32f4xx_hal_timebase_tim.o
 .debug_frame   0x000003d8       0x28 build/usb_device.o
 .debug_frame   0x00000400       0xe0 build/usbd_desc.o
 .debug_frame   0x000004e0       0x8c build/usbd_cdc_if.o
 .debug_frame   0x0000056c      0x2e4 build/usbd_conf.o
 .debug_frame   0x00000850      0xb20 build/stm32f4xx_hal_tim.o
 .debug_frame   0x00001370      0x418 build/stm32f4xx_hal_tim_ex.o
 .debug_frame   0x00001788      0x388 build/stm32f4xx_hal_pcd.o
 .debug_frame   0x00001b10       0x5c build/stm32f4xx_hal_pcd_ex.o
 .debug_frame   0x00001b6c      0x494 build/stm32f4xx_ll_usb.o
 .debug_frame   0x00002000      0x16c build/stm32f4xx_hal_rcc.o
 .debug_frame   0x0000216c       0xd8 build/stm32f4xx_hal_gpio.o
 .debug_frame   0x00002244      0x214 build/stm32f4xx_hal_cortex.o
 .debug_frame   0x00002458      0x1ec build/stm32f4xx_hal.o
 .debug_frame   0x00002644      0x268 build/stm32f4xx_hal_adc.o
 .debug_frame   0x000028ac      0x988 build/stm32f4xx_hal_i2c.o
 .debug_frame   0x00003234       0x30 build/system_stm32f4xx.o
 .debug_frame   0x00003264       0x70 build/list.o
 .debug_frame   0x000032d4      0x458 build/queue.o
 .debug_frame   0x0000372c      0x694 build/tasks.o
 .debug_frame   0x00003dc0      0x30c build/timers.o
 .debug_frame   0x000040cc      0x90c build/cmsis_os2.o
 .debug_frame   0x000049d8       0xd0 build/heap_4.o
 .debug_frame   0x00004aa8      0x110 build/port.o
 .debug_frame   0x00004bb8      0x240 build/usbd_core.o
 .debug_frame   0x00004df8      0x180 build/usbd_ctlreq.o
 .debug_frame   0x00004f78       0xb8 build/usbd_ioreq.o
 .debug_frame   0x00005030      0x190 build/usbd_cdc.o
 .debug_frame   0x000051c0      0x144 c:/Program Files/ARMtoolchain/bin/../lib/gcc/arm-none-eabi/14.2.1/thumb/v7e-m+fp/hard\libc_nano.a(libc_a-findfp.o)
 .debug_frame   0x00005304       0x34 c:/Program Files/ARMtoolchain/bin/../lib/gcc/arm-none-eabi/14.2.1/thumb/v7e-m+fp/hard\libc_nano.a(libc_a-fwalk.o)
 .debug_frame   0x00005338       0x6c c:/Program Files/ARMtoolchain/bin/../lib/gcc/arm-none-eabi/14.2.1/thumb/v7e-m+fp/hard\libc_nano.a(libc_a-printf.o)
 .debug_frame   0x000053a4       0x3c c:/Program Files/ARMtoolchain/bin/../lib/gcc/arm-none-eabi/14.2.1/thumb/v7e-m+fp/hard\libc_nano.a(libc_a-puts.o)
 .debug_frame   0x000053e0       0x88 c:/Program Files/ARMtoolchain/bin/../lib/gcc/arm-none-eabi/14.2.1/thumb/v7e-m+fp/hard\libc_nano.a(libc_a-stdio.o)
 .debug_frame   0x00005468       0x40 c:/Program Files/ARMtoolchain/bin/../lib/gcc/arm-none-eabi/14.2.1/thumb/v7e-m+fp/hard\libc_nano.a(libc_a-wbuf.o)
 .debug_frame   0x000054a8       0x2c c:/Program Files/ARMtoolchain/bin/../lib/gcc/arm-none-eabi/14.2.1/thumb/v7e-m+fp/hard\libc_nano.a(libc_a-wsetup.o)
 .debug_frame   0x000054d4       0x20 c:/Program Files/ARMtoolchain/bin/../lib/gcc/arm-none-eabi/14.2.1/thumb/v7e-m+fp/hard\libc_nano.a(libc_a-memset.o)
 .debug_frame   0x000054f4       0x2c c:/Program Files/ARMtoolchain/bin/../lib/gcc/arm-none-eabi/14.2.1/thumb/v7e-m+fp/hard\libc_nano.a(libc_a-closer.o)
 .debug_frame   0x00005520       0x38 c:/Program Files/ARMtoolchain/bin/../lib/gcc/arm-none-eabi/14.2.1/thumb/v7e-m+fp/hard\libc_nano.a(libc_a-reent.o)
 .debug_frame   0x00005558       0x2c c:/Program Files/ARMtoolchain/bin/../lib/gcc/arm-none-eabi/14.2.1/thumb/v7e-m+fp/hard\libc_nano.a(libc_a-lseekr.o)
 .debug_frame   0x00005584       0x2c c:/Program Files/ARMtoolchain/bin/../lib/gcc/arm-none-eabi/14.2.1/thumb/v7e-m+fp/hard\libc_nano.a(libc_a-readr.o)
 .debug_frame   0x000055b0       0x2c c:/Program Files/ARMtoolchain/bin/../lib/gcc/arm-none-eabi/14.2.1/thumb/v7e-m+fp/hard\libc_nano.a(libc_a-writer.o)
 .debug_frame   0x000055dc       0x2c c:/Program Files/ARMtoolchain/bin/../lib/gcc/arm-none-eabi/14.2.1/thumb/v7e-m+fp/hard\libc_nano.a(libc_a-init.o)
 .debug_frame   0x00005608       0xb0 c:/Program Files/ARMtoolchain/bin/../lib/gcc/arm-none-eabi/14.2.1/thumb/v7e-m+fp/hard\libc_nano.a(libc_a-lock.o)
 .debug_frame   0x000056b8       0x28 c:/Program Files/ARMtoolchain/bin/../lib/gcc/arm-none-eabi/14.2.1/thumb/v7e-m+fp/hard\libc_nano.a(libc_a-memcpy-stub.o)
 .debug_frame   0x000056e0       0x38 c:/Program Files/ARMtoolchain/bin/../lib/gcc/arm-none-eabi/14.2.1/thumb/v7e-m+fp/hard\libc_nano.a(libc_a-freer.o)
 .debug_frame   0x00005718       0x50 c:/Program Files/ARMtoolchain/bin/../lib/gcc/arm-none-eabi/14.2.1/thumb/v7e-m+fp/hard\libc_nano.a(libc_a-mallocr.o)
 .debug_frame   0x00005768       0x30 c:/Program Files/ARMtoolchain/bin/../lib/gcc/arm-none-eabi/14.2.1/thumb/v7e-m+fp/hard\libc_nano.a(libc_a-mlock.o)
 .debug_frame   0x00005798       0xa8 c:/Program Files/ARMtoolchain/bin/../lib/gcc/arm-none-eabi/14.2.1/thumb/v7e-m+fp/hard\libc_nano.a(libc_a-nano-vfprintf.o)
 .debug_frame   0x00005840       0x60 c:/Program Files/ARMtoolchain/bin/../lib/gcc/arm-none-eabi/14.2.1/thumb/v7e-m+fp/hard\libc_nano.a(libc_a-nano-vfprintf_i.o)
 .debug_frame   0x000058a0       0x5c c:/Program Files/ARMtoolchain/bin/../lib/gcc/arm-none-eabi/14.2.1/thumb/v7e-m+fp/hard\libc_nano.a(libc_a-fflush.o)
 .debug_frame   0x000058fc       0x58 c:/Program Files/ARMtoolchain/bin/../lib/gcc/arm-none-eabi/14.2.1/thumb/v7e-m+fp/hard\libc_nano.a(libc_a-makebuf.o)
 .debug_frame   0x00005954       0x2c c:/Program Files/ARMtoolchain/bin/../lib/gcc/arm-none-eabi/14.2.1/thumb/v7e-m+fp/hard\libc_nano.a(libc_a-fstatr.o)
 .debug_frame   0x00005980       0x2c c:/Program Files/ARMtoolchain/bin/../lib/gcc/arm-none-eabi/14.2.1/thumb/v7e-m+fp/hard\libc_nano.a(libc_a-isattyr.o)
 .debug_frame   0x000059ac       0x2c c:/Program Files/ARMtoolchain/bin/../lib/gcc/arm-none-eabi/14.2.1/thumb/v7e-m+fp/hard\libc_nano.a(libc_a-sbrkr.o)
 .debug_frame   0x000059d8       0x4c c:/Program Files/ARMtoolchain/bin/../lib/gcc/arm-none-eabi/14.2.1/thumb/v7e-m+fp/hard\libc_nano.a(libc_a-memchr.o)
 .debug_frame   0x00005a24       0x4c c:/Program Files/ARMtoolchain/bin/../lib/gcc/arm-none-eabi/14.2.1/thumb/v7e-m+fp/hard\libm.a(libm_a-w_log.o)
 .debug_frame   0x00005a70       0x20 c:/Program Files/ARMtoolchain/bin/../lib/gcc/arm-none-eabi/14.2.1/thumb/v7e-m+fp/hard\libm.a(libm_a-s_nan.o)
 .debug_frame   0x00005a90       0x28 c:/Program Files/ARMtoolchain/bin/../lib/gcc/arm-none-eabi/14.2.1/thumb/v7e-m+fp/hard\libm.a(libm_a-s_round.o)
 .debug_frame   0x00005ab8       0x54 c:/Program Files/ARMtoolchain/bin/../lib/gcc/arm-none-eabi/14.2.1/thumb/v7e-m+fp/hard\libm.a(libm_a-e_log.o)
 .debug_frame   0x00005b0c       0x20 c:/Program Files/ARMtoolchain/bin/../lib/gcc/arm-none-eabi/14.2.1/thumb/v7e-m+fp/hard\libnosys.a(close.o)
 .debug_frame   0x00005b2c       0x20 c:/Program Files/ARMtoolchain/bin/../lib/gcc/arm-none-eabi/14.2.1/thumb/v7e-m+fp/hard\libnosys.a(fstat.o)
 .debug_frame   0x00005b4c       0x20 c:/Program Files/ARMtoolchain/bin/../lib/gcc/arm-none-eabi/14.2.1/thumb/v7e-m+fp/hard\libnosys.a(isatty.o)
 .debug_frame   0x00005b6c       0x20 c:/Program Files/ARMtoolchain/bin/../lib/gcc/arm-none-eabi/14.2.1/thumb/v7e-m+fp/hard\libnosys.a(lseek.o)
 .debug_frame   0x00005b8c       0x20 c:/Program Files/ARMtoolchain/bin/../lib/gcc/arm-none-eabi/14.2.1/thumb/v7e-m+fp/hard\libnosys.a(read.o)
 .debug_frame   0x00005bac       0x20 c:/Program Files/ARMtoolchain/bin/../lib/gcc/arm-none-eabi/14.2.1/thumb/v7e-m+fp/hard\libnosys.a(sbrk.o)
 .debug_frame   0x00005bcc       0xac c:/Program Files/ARMtoolchain/bin/../lib/gcc/arm-none-eabi/14.2.1/thumb/v7e-m+fp/hard\libgcc.a(_arm_addsubdf3.o)
 .debug_frame   0x00005c78       0x50 c:/Program Files/ARMtoolchain/bin/../lib/gcc/arm-none-eabi/14.2.1/thumb/v7e-m+fp/hard\libgcc.a(_arm_muldivdf3.o)
 .debug_frame   0x00005cc8       0xc4 c:/Program Files/ARMtoolchain/bin/../lib/gcc/arm-none-eabi/14.2.1/thumb/v7e-m+fp/hard\libgcc.a(_arm_cmpdf2.o)
 .debug_frame   0x00005d8c       0x20 c:/Program Files/ARMtoolchain/bin/../lib/gcc/arm-none-eabi/14.2.1/thumb/v7e-m+fp/hard\libgcc.a(_arm_unorddf2.o)
 .debug_frame   0x00005dac       0x24 c:/Program Files/ARMtoolchain/bin/../lib/gcc/arm-none-eabi/14.2.1/thumb/v7e-m+fp/hard\libgcc.a(_arm_fixunsdfsi.o)
 .debug_frame   0x00005dd0       0x2c c:/Program Files/ARMtoolchain/bin/../lib/gcc/arm-none-eabi/14.2.1/thumb/v7e-m+fp/hard\libgcc.a(_aeabi_uldivmod.o)
 .debug_frame   0x00005dfc       0x34 c:/Program Files/ARMtoolchain/bin/../lib/gcc/arm-none-eabi/14.2.1/thumb/v7e-m+fp/hard\libgcc.a(_udivmoddi4.o)
 .debug_frame   0x00005e30       0x20 c:/Program Files/ARMtoolchain/bin/../lib/gcc/arm-none-eabi/14.2.1/thumb/v7e-m+fp/hard\libc_nano.a(libc_a-errno.o)

.debug_line_str
                0x00000000      0x1c3
 .debug_line_str
                0x00000000      0x1c3 c:/Program Files/ARMtoolchain/bin/../lib/gcc/arm-none-eabi/14.2.1/thumb/v7e-m+fp/hard\libc_nano.a(libc_a-memchr.o)
                                 0xe1 (size before relaxing)
 .debug_line_str
                0x000001c3       0xce c:/Program Files/ARMtoolchain/bin/../lib/gcc/arm-none-eabi/14.2.1/thumb/v7e-m+fp/hard\libgcc.a(_arm_addsubdf3.o)
 .debug_line_str
                0x000001c3       0xce c:/Program Files/ARMtoolchain/bin/../lib/gcc/arm-none-eabi/14.2.1/thumb/v7e-m+fp/hard\libgcc.a(_arm_muldivdf3.o)
 .debug_line_str
                0x000001c3       0xce c:/Program Files/ARMtoolchain/bin/../lib/gcc/arm-none-eabi/14.2.1/thumb/v7e-m+fp/hard\libgcc.a(_arm_cmpdf2.o)
 .debug_line_str
                0x000001c3       0xce c:/Program Files/ARMtoolchain/bin/../lib/gcc/arm-none-eabi/14.2.1/thumb/v7e-m+fp/hard\libgcc.a(_arm_unorddf2.o)
 .debug_line_str
                0x000001c3       0xce c:/Program Files/ARMtoolchain/bin/../lib/gcc/arm-none-eabi/14.2.1/thumb/v7e-m+fp/hard\libgcc.a(_arm_fixunsdfsi.o)
 .debug_line_str
                0x000001c3       0xc9 c:/Program Files/ARMtoolchain/bin/../lib/gcc/arm-none-eabi/14.2.1/thumb/v7e-m+fp/hard\libgcc.a(_aeabi_uldivmod.o)
 .debug_line_str
                0x000001c3       0xcd c:/Program Files/ARMtoolchain/bin/../lib/gcc/arm-none-eabi/14.2.1/thumb/v7e-m+fp/hard\libgcc.a(_dvmd_tls.o)

Cross Reference Table

Symbol                                            File
ACTUAL_TEMP                                       build/main.o
ADC_IRQHandler                                    build/startup_stm32f401xc.o
AHBPrescTable                                     build/system_stm32f4xx.o
                                                  build/stm32f4xx_hal_rcc.o
APBPrescTable                                     build/system_stm32f4xx.o
                                                  build/stm32f4xx_hal_rcc.o
BLUE_LED                                          build/main.o
BlinkHandle                                       build/main.o
Blink_attributes                                  build/main.o
BusFault_Handler                                  build/stm32f4xx_it.o
CDC_Transmit_FS                                   build/usbd_cdc_if.o
                                                  build/main.o
COM_attributes                                    build/main.o
COM_manager                                       build/main.o
COM_manager_handle                                build/main.o
DMA1_Stream0_IRQHandler                           build/startup_stm32f401xc.o
DMA1_Stream1_IRQHandler                           build/startup_stm32f401xc.o
DMA1_Stream2_IRQHandler                           build/startup_stm32f401xc.o
DMA1_Stream3_IRQHandler                           build/startup_stm32f401xc.o
DMA1_Stream4_IRQHandler                           build/startup_stm32f401xc.o
DMA1_Stream5_IRQHandler                           build/startup_stm32f401xc.o
DMA1_Stream6_IRQHandler                           build/startup_stm32f401xc.o
DMA1_Stream7_IRQHandler                           build/startup_stm32f401xc.o
DMA2_Stream0_IRQHandler                           build/startup_stm32f401xc.o
DMA2_Stream1_IRQHandler                           build/startup_stm32f401xc.o
DMA2_Stream2_IRQHandler                           build/startup_stm32f401xc.o
DMA2_Stream3_IRQHandler                           build/startup_stm32f401xc.o
DMA2_Stream4_IRQHandler                           build/startup_stm32f401xc.o
DMA2_Stream5_IRQHandler                           build/startup_stm32f401xc.o
DMA2_Stream6_IRQHandler                           build/startup_stm32f401xc.o
DMA2_Stream7_IRQHandler                           build/startup_stm32f401xc.o
DataToSend                                        build/main.o
DebugMon_Handler                                  build/stm32f4xx_it.o
Default_Handler                                   build/startup_stm32f401xc.o
EXTI0_IRQHandler                                  build/startup_stm32f401xc.o
EXTI15_10_IRQHandler                              build/startup_stm32f401xc.o
EXTI1_IRQHandler                                  build/startup_stm32f401xc.o
EXTI2_IRQHandler                                  build/startup_stm32f401xc.o
EXTI3_IRQHandler                                  build/startup_stm32f401xc.o
EXTI4_IRQHandler                                  build/startup_stm32f401xc.o
EXTI9_5_IRQHandler                                build/startup_stm32f401xc.o
Error_Handler                                     build/main.o
                                                  build/usbd_conf.o
                                                  build/usb_device.o
FLASH_Erase_Sector                                build/stm32f4xx_hal_flash_ex.o
                                                  build/stm32f4xx_hal_flash.o
FLASH_FlushCaches                                 build/stm32f4xx_hal_flash_ex.o
                                                  build/stm32f4xx_hal_flash.o
FLASH_IRQHandler                                  build/startup_stm32f401xc.o
FLASH_WaitForLastOperation                        build/stm32f4xx_hal_flash.o
                                                  build/stm32f4xx_hal_flash_ex.o
FPU_IRQHandler                                    build/startup_stm32f401xc.o
FS_Desc                                           build/usbd_desc.o
                                                  build/usb_device.o
GREEN_LED                                         build/main.o
HAL_ADCEx_InjectedConfigChannel                   build/stm32f4xx_hal_adc_ex.o
HAL_ADCEx_InjectedConvCpltCallback                build/stm32f4xx_hal_adc_ex.o
                                                  build/stm32f4xx_hal_adc.o
HAL_ADCEx_InjectedGetValue                        build/stm32f4xx_hal_adc_ex.o
HAL_ADCEx_InjectedPollForConversion               build/stm32f4xx_hal_adc_ex.o
HAL_ADCEx_InjectedStart                           build/stm32f4xx_hal_adc_ex.o
HAL_ADCEx_InjectedStart_IT                        build/stm32f4xx_hal_adc_ex.o
HAL_ADCEx_InjectedStop                            build/stm32f4xx_hal_adc_ex.o
HAL_ADCEx_InjectedStop_IT                         build/stm32f4xx_hal_adc_ex.o
HAL_ADCEx_MultiModeConfigChannel                  build/stm32f4xx_hal_adc_ex.o
HAL_ADCEx_MultiModeGetValue                       build/stm32f4xx_hal_adc_ex.o
HAL_ADCEx_MultiModeStart_DMA                      build/stm32f4xx_hal_adc_ex.o
HAL_ADCEx_MultiModeStop_DMA                       build/stm32f4xx_hal_adc_ex.o
HAL_ADC_AnalogWDGConfig                           build/stm32f4xx_hal_adc.o
HAL_ADC_ConfigChannel                             build/stm32f4xx_hal_adc.o
                                                  build/main.o
HAL_ADC_ConvCpltCallback                          build/stm32f4xx_hal_adc.o
                                                  build/stm32f4xx_hal_adc_ex.o
HAL_ADC_ConvHalfCpltCallback                      build/stm32f4xx_hal_adc.o
                                                  build/stm32f4xx_hal_adc_ex.o
HAL_ADC_DeInit                                    build/stm32f4xx_hal_adc.o
HAL_ADC_ErrorCallback                             build/stm32f4xx_hal_adc.o
                                                  build/stm32f4xx_hal_adc_ex.o
HAL_ADC_GetError                                  build/stm32f4xx_hal_adc.o
HAL_ADC_GetState                                  build/stm32f4xx_hal_adc.o
HAL_ADC_GetValue                                  build/stm32f4xx_hal_adc.o
                                                  build/main.o
HAL_ADC_IRQHandler                                build/stm32f4xx_hal_adc.o
HAL_ADC_Init                                      build/stm32f4xx_hal_adc.o
                                                  build/main.o
HAL_ADC_LevelOutOfWindowCallback                  build/stm32f4xx_hal_adc.o
HAL_ADC_MspDeInit                                 build/stm32f4xx_hal_msp.o
HAL_ADC_MspInit                                   build/stm32f4xx_hal_msp.o
HAL_ADC_PollForConversion                         build/stm32f4xx_hal_adc.o
                                                  build/main.o
HAL_ADC_PollForEvent                              build/stm32f4xx_hal_adc.o
HAL_ADC_Start                                     build/stm32f4xx_hal_adc.o
                                                  build/main.o
HAL_ADC_Start_DMA                                 build/stm32f4xx_hal_adc.o
HAL_ADC_Start_IT                                  build/stm32f4xx_hal_adc.o
HAL_ADC_Stop                                      build/stm32f4xx_hal_adc.o
                                                  build/main.o
HAL_ADC_Stop_DMA                                  build/stm32f4xx_hal_adc.o
HAL_ADC_Stop_IT                                   build/stm32f4xx_hal_adc.o
HAL_CORTEX_ClearEvent                             build/stm32f4xx_hal_cortex.o
HAL_DBGMCU_DisableDBGSleepMode                    build/stm32f4xx_hal.o
HAL_DBGMCU_DisableDBGStandbyMode                  build/stm32f4xx_hal.o
HAL_DBGMCU_DisableDBGStopMode                     build/stm32f4xx_hal.o
HAL_DBGMCU_EnableDBGSleepMode                     build/stm32f4xx_hal.o
HAL_DBGMCU_EnableDBGStandbyMode                   build/stm32f4xx_hal.o
HAL_DBGMCU_EnableDBGStopMode                      build/stm32f4xx_hal.o
HAL_DMAEx_ChangeMemory                            build/stm32f4xx_hal_dma_ex.o
HAL_DMAEx_MultiBufferStart                        build/stm32f4xx_hal_dma_ex.o
HAL_DMAEx_MultiBufferStart_IT                     build/stm32f4xx_hal_dma_ex.o
HAL_DMA_Abort                                     build/stm32f4xx_hal_dma.o
                                                  build/stm32f4xx_hal_adc_ex.o
                                                  build/stm32f4xx_hal_adc.o
HAL_DMA_Abort_IT                                  build/stm32f4xx_hal_dma.o
                                                  build/stm32f4xx_hal_i2c.o
                                                  build/stm32f4xx_hal_tim_ex.o
                                                  build/stm32f4xx_hal_tim.o
HAL_DMA_DeInit                                    build/stm32f4xx_hal_dma.o
HAL_DMA_GetError                                  build/stm32f4xx_hal_dma.o
                                                  build/stm32f4xx_hal_i2c.o
HAL_DMA_GetState                                  build/stm32f4xx_hal_dma.o
                                                  build/stm32f4xx_hal_i2c.o
HAL_DMA_IRQHandler                                build/stm32f4xx_hal_dma.o
HAL_DMA_Init                                      build/stm32f4xx_hal_dma.o
HAL_DMA_PollForTransfer                           build/stm32f4xx_hal_dma.o
HAL_DMA_RegisterCallback                          build/stm32f4xx_hal_dma.o
HAL_DMA_Start                                     build/stm32f4xx_hal_dma.o
HAL_DMA_Start_IT                                  build/stm32f4xx_hal_dma.o
                                                  build/stm32f4xx_hal_i2c.o
                                                  build/stm32f4xx_hal_adc_ex.o
                                                  build/stm32f4xx_hal_adc.o
                                                  build/stm32f4xx_hal_tim_ex.o
                                                  build/stm32f4xx_hal_tim.o
HAL_DMA_UnRegisterCallback                        build/stm32f4xx_hal_dma.o
HAL_DeInit                                        build/stm32f4xx_hal.o
HAL_Delay                                         build/stm32f4xx_hal.o
                                                  build/stm32f4xx_ll_usb.o
                                                  build/usbd_conf.o
                                                  build/main.o
HAL_DisableCompensationCell                       build/stm32f4xx_hal.o
HAL_EXTI_ClearConfigLine                          build/stm32f4xx_hal_exti.o
HAL_EXTI_ClearPending                             build/stm32f4xx_hal_exti.o
HAL_EXTI_GenerateSWI                              build/stm32f4xx_hal_exti.o
HAL_EXTI_GetConfigLine                            build/stm32f4xx_hal_exti.o
HAL_EXTI_GetHandle                                build/stm32f4xx_hal_exti.o
HAL_EXTI_GetPending                               build/stm32f4xx_hal_exti.o
HAL_EXTI_IRQHandler                               build/stm32f4xx_hal_exti.o
HAL_EXTI_RegisterCallback                         build/stm32f4xx_hal_exti.o
HAL_EXTI_SetConfigLine                            build/stm32f4xx_hal_exti.o
HAL_EnableCompensationCell                        build/stm32f4xx_hal.o
HAL_FLASHEx_AdvOBGetConfig                        build/stm32f4xx_hal_flash_ex.o
HAL_FLASHEx_AdvOBProgram                          build/stm32f4xx_hal_flash_ex.o
HAL_FLASHEx_Erase                                 build/stm32f4xx_hal_flash_ex.o
HAL_FLASHEx_Erase_IT                              build/stm32f4xx_hal_flash_ex.o
HAL_FLASHEx_OBGetConfig                           build/stm32f4xx_hal_flash_ex.o
HAL_FLASHEx_OBProgram                             build/stm32f4xx_hal_flash_ex.o
HAL_FLASHEx_OB_DeSelectPCROP                      build/stm32f4xx_hal_flash_ex.o
HAL_FLASHEx_OB_SelectPCROP                        build/stm32f4xx_hal_flash_ex.o
HAL_FLASH_EndOfOperationCallback                  build/stm32f4xx_hal_flash.o
HAL_FLASH_GetError                                build/stm32f4xx_hal_flash.o
HAL_FLASH_IRQHandler                              build/stm32f4xx_hal_flash.o
HAL_FLASH_Lock                                    build/stm32f4xx_hal_flash.o
HAL_FLASH_OB_Launch                               build/stm32f4xx_hal_flash.o
HAL_FLASH_OB_Lock                                 build/stm32f4xx_hal_flash.o
HAL_FLASH_OB_Unlock                               build/stm32f4xx_hal_flash.o
HAL_FLASH_OperationErrorCallback                  build/stm32f4xx_hal_flash.o
HAL_FLASH_Program                                 build/stm32f4xx_hal_flash.o
HAL_FLASH_Program_IT                              build/stm32f4xx_hal_flash.o
HAL_FLASH_Unlock                                  build/stm32f4xx_hal_flash.o
HAL_GPIO_DeInit                                   build/stm32f4xx_hal_gpio.o
                                                  build/usbd_conf.o
                                                  build/stm32f4xx_hal_msp.o
HAL_GPIO_EXTI_Callback                            build/stm32f4xx_hal_gpio.o
HAL_GPIO_EXTI_IRQHandler                          build/stm32f4xx_hal_gpio.o
HAL_GPIO_Init                                     build/stm32f4xx_hal_gpio.o
                                                  build/stm32f4xx_hal_rcc.o
                                                  build/usbd_conf.o
                                                  build/stm32f4xx_hal_msp.o
                                                  build/main.o
HAL_GPIO_LockPin                                  build/stm32f4xx_hal_gpio.o
HAL_GPIO_ReadPin                                  build/stm32f4xx_hal_gpio.o
HAL_GPIO_TogglePin                                build/stm32f4xx_hal_gpio.o
                                                  build/main.o
HAL_GPIO_WritePin                                 build/stm32f4xx_hal_gpio.o
                                                  build/main.o
HAL_GetDEVID                                      build/stm32f4xx_hal.o
HAL_GetHalVersion                                 build/stm32f4xx_hal.o
HAL_GetREVID                                      build/stm32f4xx_hal.o
HAL_GetTick                                       build/stm32f4xx_hal.o
                                                  build/stm32f4xx_hal_i2c.o
                                                  build/stm32f4xx_hal_adc_ex.o
                                                  build/stm32f4xx_hal_adc.o
                                                  build/stm32f4xx_hal_pwr_ex.o
                                                  build/stm32f4xx_hal_dma.o
                                                  build/stm32f4xx_hal_flash.o
                                                  build/stm32f4xx_hal_rcc_ex.o
                                                  build/stm32f4xx_hal_rcc.o
                                                  build/main.o
HAL_GetTickFreq                                   build/stm32f4xx_hal.o
HAL_GetTickPrio                                   build/stm32f4xx_hal.o
HAL_GetUIDw0                                      build/stm32f4xx_hal.o
HAL_GetUIDw1                                      build/stm32f4xx_hal.o
HAL_GetUIDw2                                      build/stm32f4xx_hal.o
HAL_I2CEx_ConfigAnalogFilter                      build/stm32f4xx_hal_i2c_ex.o
HAL_I2CEx_ConfigDigitalFilter                     build/stm32f4xx_hal_i2c_ex.o
HAL_I2C_AbortCpltCallback                         build/stm32f4xx_hal_i2c.o
HAL_I2C_AddrCallback                              build/stm32f4xx_hal_i2c.o
HAL_I2C_DeInit                                    build/stm32f4xx_hal_i2c.o
HAL_I2C_DisableListen_IT                          build/stm32f4xx_hal_i2c.o
HAL_I2C_ER_IRQHandler                             build/stm32f4xx_hal_i2c.o
HAL_I2C_EV_IRQHandler                             build/stm32f4xx_hal_i2c.o
HAL_I2C_EnableListen_IT                           build/stm32f4xx_hal_i2c.o
HAL_I2C_ErrorCallback                             build/stm32f4xx_hal_i2c.o
HAL_I2C_GetError                                  build/stm32f4xx_hal_i2c.o
HAL_I2C_GetMode                                   build/stm32f4xx_hal_i2c.o
HAL_I2C_GetState                                  build/stm32f4xx_hal_i2c.o
HAL_I2C_Init                                      build/stm32f4xx_hal_i2c.o
                                                  build/main.o
HAL_I2C_IsDeviceReady                             build/stm32f4xx_hal_i2c.o
HAL_I2C_ListenCpltCallback                        build/stm32f4xx_hal_i2c.o
HAL_I2C_MasterRxCpltCallback                      build/stm32f4xx_hal_i2c.o
HAL_I2C_MasterTxCpltCallback                      build/stm32f4xx_hal_i2c.o
HAL_I2C_Master_Abort_IT                           build/stm32f4xx_hal_i2c.o
HAL_I2C_Master_Receive                            build/stm32f4xx_hal_i2c.o
HAL_I2C_Master_Receive_DMA                        build/stm32f4xx_hal_i2c.o
HAL_I2C_Master_Receive_IT                         build/stm32f4xx_hal_i2c.o
HAL_I2C_Master_Seq_Receive_DMA                    build/stm32f4xx_hal_i2c.o
HAL_I2C_Master_Seq_Receive_IT                     build/stm32f4xx_hal_i2c.o
HAL_I2C_Master_Seq_Transmit_DMA                   build/stm32f4xx_hal_i2c.o
HAL_I2C_Master_Seq_Transmit_IT                    build/stm32f4xx_hal_i2c.o
HAL_I2C_Master_Transmit                           build/stm32f4xx_hal_i2c.o
HAL_I2C_Master_Transmit_DMA                       build/stm32f4xx_hal_i2c.o
HAL_I2C_Master_Transmit_IT                        build/stm32f4xx_hal_i2c.o
HAL_I2C_MemRxCpltCallback                         build/stm32f4xx_hal_i2c.o
HAL_I2C_MemTxCpltCallback                         build/stm32f4xx_hal_i2c.o
HAL_I2C_Mem_Read                                  build/stm32f4xx_hal_i2c.o
HAL_I2C_Mem_Read_DMA                              build/stm32f4xx_hal_i2c.o
HAL_I2C_Mem_Read_IT                               build/stm32f4xx_hal_i2c.o
HAL_I2C_Mem_Write                                 build/stm32f4xx_hal_i2c.o
HAL_I2C_Mem_Write_DMA                             build/stm32f4xx_hal_i2c.o
HAL_I2C_Mem_Write_IT                              build/stm32f4xx_hal_i2c.o
HAL_I2C_MspDeInit                                 build/stm32f4xx_hal_msp.o
HAL_I2C_MspInit                                   build/stm32f4xx_hal_msp.o
HAL_I2C_SlaveRxCpltCallback                       build/stm32f4xx_hal_i2c.o
HAL_I2C_SlaveTxCpltCallback                       build/stm32f4xx_hal_i2c.o
HAL_I2C_Slave_Receive                             build/stm32f4xx_hal_i2c.o
HAL_I2C_Slave_Receive_DMA                         build/stm32f4xx_hal_i2c.o
HAL_I2C_Slave_Receive_IT                          build/stm32f4xx_hal_i2c.o
HAL_I2C_Slave_Seq_Receive_DMA                     build/stm32f4xx_hal_i2c.o
HAL_I2C_Slave_Seq_Receive_IT                      build/stm32f4xx_hal_i2c.o
HAL_I2C_Slave_Seq_Transmit_DMA                    build/stm32f4xx_hal_i2c.o
HAL_I2C_Slave_Seq_Transmit_IT                     build/stm32f4xx_hal_i2c.o
HAL_I2C_Slave_Transmit                            build/stm32f4xx_hal_i2c.o
HAL_I2C_Slave_Transmit_DMA                        build/stm32f4xx_hal_i2c.o
HAL_I2C_Slave_Transmit_IT                         build/stm32f4xx_hal_i2c.o
HAL_IncTick                                       build/stm32f4xx_hal.o
                                                  build/main.o
HAL_Init                                          build/stm32f4xx_hal.o
                                                  build/main.o
HAL_InitTick                                      build/stm32f4xx_hal_timebase_tim.o
                                                  build/stm32f4xx_hal_rcc_ex.o
                                                  build/stm32f4xx_hal_rcc.o
HAL_MPU_ConfigRegion                              build/stm32f4xx_hal_cortex.o
HAL_MPU_Disable                                   build/stm32f4xx_hal_cortex.o
HAL_MPU_DisableRegion                             build/stm32f4xx_hal_cortex.o
HAL_MPU_Enable                                    build/stm32f4xx_hal_cortex.o
HAL_MPU_EnableRegion                              build/stm32f4xx_hal_cortex.o
HAL_MspDeInit                                     build/stm32f4xx_hal.o
HAL_MspInit                                       build/stm32f4xx_hal_msp.o
HAL_NVIC_ClearPendingIRQ                          build/stm32f4xx_hal_cortex.o
HAL_NVIC_DisableIRQ                               build/stm32f4xx_hal_cortex.o
                                                  build/usbd_conf.o
HAL_NVIC_EnableIRQ                                build/stm32f4xx_hal_cortex.o
                                                  build/usbd_conf.o
                                                  build/stm32f4xx_hal_timebase_tim.o
HAL_NVIC_GetActive                                build/stm32f4xx_hal_cortex.o
HAL_NVIC_GetPendingIRQ                            build/stm32f4xx_hal_cortex.o
HAL_NVIC_GetPriority                              build/stm32f4xx_hal_cortex.o
HAL_NVIC_GetPriorityGrouping                      build/stm32f4xx_hal_cortex.o
HAL_NVIC_SetPendingIRQ                            build/stm32f4xx_hal_cortex.o
HAL_NVIC_SetPriority                              build/stm32f4xx_hal_cortex.o
                                                  build/stm32f4xx_hal.o
                                                  build/usbd_conf.o
                                                  build/stm32f4xx_hal_timebase_tim.o
                                                  build/stm32f4xx_hal_msp.o
HAL_NVIC_SetPriorityGrouping                      build/stm32f4xx_hal_cortex.o
                                                  build/stm32f4xx_hal.o
HAL_NVIC_SystemReset                              build/stm32f4xx_hal_cortex.o
HAL_PCDEx_BCD_Callback                            build/stm32f4xx_hal_pcd_ex.o
HAL_PCDEx_LPM_Callback                            build/stm32f4xx_hal_pcd_ex.o
                                                  build/stm32f4xx_hal_pcd.o
HAL_PCDEx_SetRxFiFo                               build/stm32f4xx_hal_pcd_ex.o
                                                  build/usbd_conf.o
HAL_PCDEx_SetTxFiFo                               build/stm32f4xx_hal_pcd_ex.o
                                                  build/usbd_conf.o
HAL_PCD_ActivateRemoteWakeup                      build/stm32f4xx_hal_pcd.o
HAL_PCD_ConnectCallback                           build/usbd_conf.o
HAL_PCD_DataInStageCallback                       build/usbd_conf.o
HAL_PCD_DataOutStageCallback                      build/usbd_conf.o
HAL_PCD_DeActivateRemoteWakeup                    build/stm32f4xx_hal_pcd.o
HAL_PCD_DeInit                                    build/stm32f4xx_hal_pcd.o
                                                  build/usbd_conf.o
HAL_PCD_DevConnect                                build/stm32f4xx_hal_pcd.o
HAL_PCD_DevDisconnect                             build/stm32f4xx_hal_pcd.o
HAL_PCD_DisconnectCallback                        build/usbd_conf.o
HAL_PCD_EP_Abort                                  build/stm32f4xx_hal_pcd.o
HAL_PCD_EP_Close                                  build/stm32f4xx_hal_pcd.o
                                                  build/usbd_conf.o
HAL_PCD_EP_ClrStall                               build/stm32f4xx_hal_pcd.o
                                                  build/usbd_conf.o
HAL_PCD_EP_Flush                                  build/stm32f4xx_hal_pcd.o
                                                  build/usbd_conf.o
HAL_PCD_EP_GetRxCount                             build/stm32f4xx_hal_pcd.o
                                                  build/usbd_conf.o
HAL_PCD_EP_Open                                   build/stm32f4xx_hal_pcd.o
                                                  build/usbd_conf.o
HAL_PCD_EP_Receive                                build/stm32f4xx_hal_pcd.o
                                                  build/usbd_conf.o
HAL_PCD_EP_SetStall                               build/stm32f4xx_hal_pcd.o
                                                  build/usbd_conf.o
HAL_PCD_EP_Transmit                               build/stm32f4xx_hal_pcd.o
                                                  build/usbd_conf.o
HAL_PCD_GetState                                  build/stm32f4xx_hal_pcd.o
HAL_PCD_IRQHandler                                build/stm32f4xx_hal_pcd.o
                                                  build/stm32f4xx_it.o
HAL_PCD_ISOINIncompleteCallback                   build/usbd_conf.o
HAL_PCD_ISOOUTIncompleteCallback                  build/usbd_conf.o
HAL_PCD_Init                                      build/stm32f4xx_hal_pcd.o
                                                  build/usbd_conf.o
HAL_PCD_MspDeInit                                 build/usbd_conf.o
HAL_PCD_MspInit                                   build/usbd_conf.o
HAL_PCD_ResetCallback                             build/usbd_conf.o
HAL_PCD_ResumeCallback                            build/usbd_conf.o
HAL_PCD_SOFCallback                               build/usbd_conf.o
HAL_PCD_SetAddress                                build/stm32f4xx_hal_pcd.o
                                                  build/usbd_conf.o
HAL_PCD_SetTestMode                               build/stm32f4xx_hal_pcd.o
HAL_PCD_SetupStageCallback                        build/usbd_conf.o
HAL_PCD_Start                                     build/stm32f4xx_hal_pcd.o
                                                  build/usbd_conf.o
HAL_PCD_Stop                                      build/stm32f4xx_hal_pcd.o
                                                  build/usbd_conf.o
HAL_PCD_SuspendCallback                           build/usbd_conf.o
HAL_PCD_WKUP_IRQHandler                           build/stm32f4xx_hal_pcd.o
HAL_PWREx_ControlVoltageScaling                   build/stm32f4xx_hal_pwr_ex.o
HAL_PWREx_DisableBkUpReg                          build/stm32f4xx_hal_pwr_ex.o
HAL_PWREx_DisableFlashPowerDown                   build/stm32f4xx_hal_pwr_ex.o
HAL_PWREx_DisableLowRegulatorLowVoltage           build/stm32f4xx_hal_pwr_ex.o
HAL_PWREx_DisableMainRegulatorLowVoltage          build/stm32f4xx_hal_pwr_ex.o
HAL_PWREx_EnableBkUpReg                           build/stm32f4xx_hal_pwr_ex.o
HAL_PWREx_EnableFlashPowerDown                    build/stm32f4xx_hal_pwr_ex.o
HAL_PWREx_EnableLowRegulatorLowVoltage            build/stm32f4xx_hal_pwr_ex.o
HAL_PWREx_EnableMainRegulatorLowVoltage           build/stm32f4xx_hal_pwr_ex.o
HAL_PWREx_GetVoltageRange                         build/stm32f4xx_hal_pwr_ex.o
HAL_PWR_ConfigPVD                                 build/stm32f4xx_hal_pwr.o
HAL_PWR_DeInit                                    build/stm32f4xx_hal_pwr.o
HAL_PWR_DisableBkUpAccess                         build/stm32f4xx_hal_pwr.o
HAL_PWR_DisablePVD                                build/stm32f4xx_hal_pwr.o
HAL_PWR_DisableSEVOnPend                          build/stm32f4xx_hal_pwr.o
HAL_PWR_DisableSleepOnExit                        build/stm32f4xx_hal_pwr.o
HAL_PWR_DisableWakeUpPin                          build/stm32f4xx_hal_pwr.o
HAL_PWR_EnableBkUpAccess                          build/stm32f4xx_hal_pwr.o
HAL_PWR_EnablePVD                                 build/stm32f4xx_hal_pwr.o
HAL_PWR_EnableSEVOnPend                           build/stm32f4xx_hal_pwr.o
HAL_PWR_EnableSleepOnExit                         build/stm32f4xx_hal_pwr.o
HAL_PWR_EnableWakeUpPin                           build/stm32f4xx_hal_pwr.o
HAL_PWR_EnterSLEEPMode                            build/stm32f4xx_hal_pwr.o
HAL_PWR_EnterSTANDBYMode                          build/stm32f4xx_hal_pwr.o
HAL_PWR_EnterSTOPMode                             build/stm32f4xx_hal_pwr.o
HAL_PWR_PVDCallback                               build/stm32f4xx_hal_pwr.o
HAL_PWR_PVD_IRQHandler                            build/stm32f4xx_hal_pwr.o
HAL_RCCEx_DisablePLLI2S                           build/stm32f4xx_hal_rcc_ex.o
HAL_RCCEx_EnablePLLI2S                            build/stm32f4xx_hal_rcc_ex.o
HAL_RCCEx_GetPeriphCLKConfig                      build/stm32f4xx_hal_rcc_ex.o
HAL_RCCEx_GetPeriphCLKFreq                        build/stm32f4xx_hal_rcc_ex.o
HAL_RCCEx_PeriphCLKConfig                         build/stm32f4xx_hal_rcc_ex.o
HAL_RCC_CSSCallback                               build/stm32f4xx_hal_rcc.o
HAL_RCC_ClockConfig                               build/stm32f4xx_hal_rcc.o
                                                  build/main.o
HAL_RCC_DeInit                                    build/stm32f4xx_hal_rcc_ex.o
                                                  build/stm32f4xx_hal_rcc.o
HAL_RCC_DisableCSS                                build/stm32f4xx_hal_rcc.o
HAL_RCC_EnableCSS                                 build/stm32f4xx_hal_rcc.o
HAL_RCC_GetClockConfig                            build/stm32f4xx_hal_rcc.o
                                                  build/stm32f4xx_hal_timebase_tim.o
HAL_RCC_GetHCLKFreq                               build/stm32f4xx_hal_rcc.o
                                                  build/stm32f4xx_hal_pcd.o
HAL_RCC_GetOscConfig                              build/stm32f4xx_hal_rcc.o
HAL_RCC_GetPCLK1Freq                              build/stm32f4xx_hal_rcc.o
                                                  build/stm32f4xx_hal_i2c.o
HAL_RCC_GetPCLK2Freq                              build/stm32f4xx_hal_rcc.o
                                                  build/stm32f4xx_hal_timebase_tim.o
HAL_RCC_GetSysClockFreq                           build/stm32f4xx_hal_rcc.o
HAL_RCC_MCOConfig                                 build/stm32f4xx_hal_rcc.o
HAL_RCC_NMI_IRQHandler                            build/stm32f4xx_hal_rcc.o
HAL_RCC_OscConfig                                 build/stm32f4xx_hal_rcc.o
                                                  build/main.o
HAL_ResumeTick                                    build/stm32f4xx_hal_timebase_tim.o
HAL_SYSTICK_CLKSourceConfig                       build/stm32f4xx_hal_cortex.o
HAL_SYSTICK_Callback                              build/stm32f4xx_hal_cortex.o
HAL_SYSTICK_Config                                build/stm32f4xx_hal_cortex.o
                                                  build/stm32f4xx_hal.o
HAL_SYSTICK_IRQHandler                            build/stm32f4xx_hal_cortex.o
HAL_SetTickFreq                                   build/stm32f4xx_hal.o
HAL_SuspendTick                                   build/stm32f4xx_hal_timebase_tim.o
HAL_TIMEx_BreakCallback                           build/stm32f4xx_hal_tim_ex.o
                                                  build/stm32f4xx_hal_tim.o
HAL_TIMEx_CommutCallback                          build/stm32f4xx_hal_tim_ex.o
                                                  build/stm32f4xx_hal_tim.o
HAL_TIMEx_CommutHalfCpltCallback                  build/stm32f4xx_hal_tim_ex.o
HAL_TIMEx_ConfigBreakDeadTime                     build/stm32f4xx_hal_tim_ex.o
HAL_TIMEx_ConfigCommutEvent                       build/stm32f4xx_hal_tim_ex.o
HAL_TIMEx_ConfigCommutEvent_DMA                   build/stm32f4xx_hal_tim_ex.o
HAL_TIMEx_ConfigCommutEvent_IT                    build/stm32f4xx_hal_tim_ex.o
HAL_TIMEx_GetChannelNState                        build/stm32f4xx_hal_tim_ex.o
HAL_TIMEx_HallSensor_DeInit                       build/stm32f4xx_hal_tim_ex.o
HAL_TIMEx_HallSensor_GetState                     build/stm32f4xx_hal_tim_ex.o
HAL_TIMEx_HallSensor_Init                         build/stm32f4xx_hal_tim_ex.o
HAL_TIMEx_HallSensor_MspDeInit                    build/stm32f4xx_hal_tim_ex.o
HAL_TIMEx_HallSensor_MspInit                      build/stm32f4xx_hal_tim_ex.o
HAL_TIMEx_HallSensor_Start                        build/stm32f4xx_hal_tim_ex.o
HAL_TIMEx_HallSensor_Start_DMA                    build/stm32f4xx_hal_tim_ex.o
HAL_TIMEx_HallSensor_Start_IT                     build/stm32f4xx_hal_tim_ex.o
HAL_TIMEx_HallSensor_Stop                         build/stm32f4xx_hal_tim_ex.o
HAL_TIMEx_HallSensor_Stop_DMA                     build/stm32f4xx_hal_tim_ex.o
HAL_TIMEx_HallSensor_Stop_IT                      build/stm32f4xx_hal_tim_ex.o
HAL_TIMEx_MasterConfigSynchronization             build/stm32f4xx_hal_tim_ex.o
                                                  build/main.o
HAL_TIMEx_OCN_Start                               build/stm32f4xx_hal_tim_ex.o
HAL_TIMEx_OCN_Start_DMA                           build/stm32f4xx_hal_tim_ex.o
HAL_TIMEx_OCN_Start_IT                            build/stm32f4xx_hal_tim_ex.o
HAL_TIMEx_OCN_Stop                                build/stm32f4xx_hal_tim_ex.o
HAL_TIMEx_OCN_Stop_DMA                            build/stm32f4xx_hal_tim_ex.o
HAL_TIMEx_OCN_Stop_IT                             build/stm32f4xx_hal_tim_ex.o
HAL_TIMEx_OnePulseN_Start                         build/stm32f4xx_hal_tim_ex.o
HAL_TIMEx_OnePulseN_Start_IT                      build/stm32f4xx_hal_tim_ex.o
HAL_TIMEx_OnePulseN_Stop                          build/stm32f4xx_hal_tim_ex.o
HAL_TIMEx_OnePulseN_Stop_IT                       build/stm32f4xx_hal_tim_ex.o
HAL_TIMEx_PWMN_Start                              build/stm32f4xx_hal_tim_ex.o
HAL_TIMEx_PWMN_Start_DMA                          build/stm32f4xx_hal_tim_ex.o
HAL_TIMEx_PWMN_Start_IT                           build/stm32f4xx_hal_tim_ex.o
HAL_TIMEx_PWMN_Stop                               build/stm32f4xx_hal_tim_ex.o
HAL_TIMEx_PWMN_Stop_DMA                           build/stm32f4xx_hal_tim_ex.o
HAL_TIMEx_PWMN_Stop_IT                            build/stm32f4xx_hal_tim_ex.o
HAL_TIMEx_RemapConfig                             build/stm32f4xx_hal_tim_ex.o
HAL_TIM_Base_DeInit                               build/stm32f4xx_hal_tim.o
HAL_TIM_Base_GetState                             build/stm32f4xx_hal_tim.o
HAL_TIM_Base_Init                                 build/stm32f4xx_hal_tim.o
                                                  build/stm32f4xx_hal_timebase_tim.o
                                                  build/main.o
HAL_TIM_Base_MspDeInit                            build/stm32f4xx_hal_msp.o
HAL_TIM_Base_MspInit                              build/stm32f4xx_hal_msp.o
HAL_TIM_Base_Start                                build/stm32f4xx_hal_tim.o
HAL_TIM_Base_Start_DMA                            build/stm32f4xx_hal_tim.o
HAL_TIM_Base_Start_IT                             build/stm32f4xx_hal_tim.o
                                                  build/stm32f4xx_hal_timebase_tim.o
HAL_TIM_Base_Stop                                 build/stm32f4xx_hal_tim.o
HAL_TIM_Base_Stop_DMA                             build/stm32f4xx_hal_tim.o
HAL_TIM_Base_Stop_IT                              build/stm32f4xx_hal_tim.o
HAL_TIM_ConfigClockSource                         build/stm32f4xx_hal_tim.o
                                                  build/main.o
HAL_TIM_ConfigOCrefClear                          build/stm32f4xx_hal_tim.o
HAL_TIM_ConfigTI1Input                            build/stm32f4xx_hal_tim.o
HAL_TIM_DMABurstState                             build/stm32f4xx_hal_tim.o
HAL_TIM_DMABurst_MultiReadStart                   build/stm32f4xx_hal_tim.o
HAL_TIM_DMABurst_MultiWriteStart                  build/stm32f4xx_hal_tim.o
HAL_TIM_DMABurst_ReadStart                        build/stm32f4xx_hal_tim.o
HAL_TIM_DMABurst_ReadStop                         build/stm32f4xx_hal_tim.o
HAL_TIM_DMABurst_WriteStart                       build/stm32f4xx_hal_tim.o
HAL_TIM_DMABurst_WriteStop                        build/stm32f4xx_hal_tim.o
HAL_TIM_Encoder_DeInit                            build/stm32f4xx_hal_tim.o
HAL_TIM_Encoder_GetState                          build/stm32f4xx_hal_tim.o
HAL_TIM_Encoder_Init                              build/stm32f4xx_hal_tim.o
HAL_TIM_Encoder_MspDeInit                         build/stm32f4xx_hal_tim.o
HAL_TIM_Encoder_MspInit                           build/stm32f4xx_hal_tim.o
HAL_TIM_Encoder_Start                             build/stm32f4xx_hal_tim.o
HAL_TIM_Encoder_Start_DMA                         build/stm32f4xx_hal_tim.o
HAL_TIM_Encoder_Start_IT                          build/stm32f4xx_hal_tim.o
HAL_TIM_Encoder_Stop                              build/stm32f4xx_hal_tim.o
HAL_TIM_Encoder_Stop_DMA                          build/stm32f4xx_hal_tim.o
HAL_TIM_Encoder_Stop_IT                           build/stm32f4xx_hal_tim.o
HAL_TIM_ErrorCallback                             build/stm32f4xx_hal_tim.o
                                                  build/stm32f4xx_hal_tim_ex.o
HAL_TIM_GenerateEvent                             build/stm32f4xx_hal_tim.o
HAL_TIM_GetActiveChannel                          build/stm32f4xx_hal_tim.o
HAL_TIM_GetChannelState                           build/stm32f4xx_hal_tim.o
HAL_TIM_IC_CaptureCallback                        build/stm32f4xx_hal_tim.o
HAL_TIM_IC_CaptureHalfCpltCallback                build/stm32f4xx_hal_tim.o
HAL_TIM_IC_ConfigChannel                          build/stm32f4xx_hal_tim.o
HAL_TIM_IC_DeInit                                 build/stm32f4xx_hal_tim.o
HAL_TIM_IC_GetState                               build/stm32f4xx_hal_tim.o
HAL_TIM_IC_Init                                   build/stm32f4xx_hal_tim.o
HAL_TIM_IC_MspDeInit                              build/stm32f4xx_hal_tim.o
HAL_TIM_IC_MspInit                                build/stm32f4xx_hal_tim.o
HAL_TIM_IC_Start                                  build/stm32f4xx_hal_tim.o
HAL_TIM_IC_Start_DMA                              build/stm32f4xx_hal_tim.o
HAL_TIM_IC_Start_IT                               build/stm32f4xx_hal_tim.o
HAL_TIM_IC_Stop                                   build/stm32f4xx_hal_tim.o
HAL_TIM_IC_Stop_DMA                               build/stm32f4xx_hal_tim.o
HAL_TIM_IC_Stop_IT                                build/stm32f4xx_hal_tim.o
HAL_TIM_IRQHandler                                build/stm32f4xx_hal_tim.o
                                                  build/stm32f4xx_it.o
HAL_TIM_MspPostInit                               build/stm32f4xx_hal_msp.o
                                                  build/main.o
HAL_TIM_OC_ConfigChannel                          build/stm32f4xx_hal_tim.o
HAL_TIM_OC_DeInit                                 build/stm32f4xx_hal_tim.o
HAL_TIM_OC_DelayElapsedCallback                   build/stm32f4xx_hal_tim.o
HAL_TIM_OC_GetState                               build/stm32f4xx_hal_tim.o
HAL_TIM_OC_Init                                   build/stm32f4xx_hal_tim.o
HAL_TIM_OC_MspDeInit                              build/stm32f4xx_hal_tim.o
HAL_TIM_OC_MspInit                                build/stm32f4xx_hal_tim.o
HAL_TIM_OC_Start                                  build/stm32f4xx_hal_tim.o
HAL_TIM_OC_Start_DMA                              build/stm32f4xx_hal_tim.o
HAL_TIM_OC_Start_IT                               build/stm32f4xx_hal_tim.o
HAL_TIM_OC_Stop                                   build/stm32f4xx_hal_tim.o
HAL_TIM_OC_Stop_DMA                               build/stm32f4xx_hal_tim.o
HAL_TIM_OC_Stop_IT                                build/stm32f4xx_hal_tim.o
HAL_TIM_OnePulse_ConfigChannel                    build/stm32f4xx_hal_tim.o
HAL_TIM_OnePulse_DeInit                           build/stm32f4xx_hal_tim.o
HAL_TIM_OnePulse_GetState                         build/stm32f4xx_hal_tim.o
HAL_TIM_OnePulse_Init                             build/stm32f4xx_hal_tim.o
HAL_TIM_OnePulse_MspDeInit                        build/stm32f4xx_hal_tim.o
HAL_TIM_OnePulse_MspInit                          build/stm32f4xx_hal_tim.o
HAL_TIM_OnePulse_Start                            build/stm32f4xx_hal_tim.o
HAL_TIM_OnePulse_Start_IT                         build/stm32f4xx_hal_tim.o
HAL_TIM_OnePulse_Stop                             build/stm32f4xx_hal_tim.o
HAL_TIM_OnePulse_Stop_IT                          build/stm32f4xx_hal_tim.o
HAL_TIM_PWM_ConfigChannel                         build/stm32f4xx_hal_tim.o
                                                  build/main.o
HAL_TIM_PWM_DeInit                                build/stm32f4xx_hal_tim.o
HAL_TIM_PWM_GetState                              build/stm32f4xx_hal_tim.o
HAL_TIM_PWM_Init                                  build/stm32f4xx_hal_tim.o
                                                  build/main.o
HAL_TIM_PWM_MspDeInit                             build/stm32f4xx_hal_tim.o
HAL_TIM_PWM_MspInit                               build/stm32f4xx_hal_tim.o
HAL_TIM_PWM_PulseFinishedCallback                 build/stm32f4xx_hal_tim.o
                                                  build/stm32f4xx_hal_tim_ex.o
HAL_TIM_PWM_PulseFinishedHalfCpltCallback         build/stm32f4xx_hal_tim.o
HAL_TIM_PWM_Start                                 build/stm32f4xx_hal_tim.o
                                                  build/main.o
HAL_TIM_PWM_Start_DMA                             build/stm32f4xx_hal_tim.o
HAL_TIM_PWM_Start_IT                              build/stm32f4xx_hal_tim.o
HAL_TIM_PWM_Stop                                  build/stm32f4xx_hal_tim.o
HAL_TIM_PWM_Stop_DMA                              build/stm32f4xx_hal_tim.o
HAL_TIM_PWM_Stop_IT                               build/stm32f4xx_hal_tim.o
HAL_TIM_PeriodElapsedCallback                     build/main.o
HAL_TIM_PeriodElapsedHalfCpltCallback             build/stm32f4xx_hal_tim.o
HAL_TIM_ReadCapturedValue                         build/stm32f4xx_hal_tim.o
HAL_TIM_SlaveConfigSynchro                        build/stm32f4xx_hal_tim.o
HAL_TIM_SlaveConfigSynchro_IT                     build/stm32f4xx_hal_tim.o
HAL_TIM_TriggerCallback                           build/stm32f4xx_hal_tim.o
HAL_TIM_TriggerHalfCpltCallback                   build/stm32f4xx_hal_tim.o
HardFault_Handler                                 build/stm32f4xx_it.o
I2C1_ER_IRQHandler                                build/startup_stm32f401xc.o
I2C1_EV_IRQHandler                                build/startup_stm32f401xc.o
I2C2_ER_IRQHandler                                build/startup_stm32f401xc.o
I2C2_EV_IRQHandler                                build/startup_stm32f401xc.o
I2C3_ER_IRQHandler                                build/startup_stm32f401xc.o
I2C3_EV_IRQHandler                                build/startup_stm32f401xc.o
LED_attributes                                    build/main.o
LED_manager                                       build/main.o
LED_manager_handle                                build/main.o
MX_USB_DEVICE_Init                                build/usb_device.o
                                                  build/main.o
MemManage_Handler                                 build/stm32f4xx_it.o
MessageCounter                                    build/main.o
MessageLength                                     build/main.o
NMI_Handler                                       build/stm32f4xx_it.o
OTG_FS_IRQHandler                                 build/stm32f4xx_it.o
OTG_FS_WKUP_IRQHandler                            build/startup_stm32f401xc.o
POT_attributes                                    build/main.o
POT_manager                                       build/main.o
POT_manager_handle                                build/main.o
PVD_IRQHandler                                    build/startup_stm32f401xc.o
PendSV_Handler                                    build/port.o
R2                                                build/thermal_control.o
RCC_IRQHandler                                    build/startup_stm32f401xc.o
RED_LED                                           build/main.o
RTC_Alarm_IRQHandler                              build/startup_stm32f401xc.o
RTC_WKUP_IRQHandler                               build/startup_stm32f401xc.o
Reset_Handler                                     build/startup_stm32f401xc.o
SDIO_IRQHandler                                   build/startup_stm32f401xc.o
SPI1_IRQHandler                                   build/startup_stm32f401xc.o
SPI2_IRQHandler                                   build/startup_stm32f401xc.o
SPI3_IRQHandler                                   build/startup_stm32f401xc.o
SPI4_IRQHandler                                   build/startup_stm32f401xc.o
SVC_Handler                                       build/port.o
StartBlink                                        build/main.o
SysTick_Handler                                   build/cmsis_os2.o
SystemClock_Config                                build/main.o
SystemCoreClock                                   build/system_stm32f4xx.o
                                                  build/port.o
                                                  build/cmsis_os2.o
                                                  build/stm32f4xx_hal_i2c.o
                                                  build/stm32f4xx_hal_adc_ex.o
                                                  build/stm32f4xx_hal_adc.o
                                                  build/stm32f4xx_hal.o
                                                  build/stm32f4xx_hal_dma.o
                                                  build/stm32f4xx_hal_rcc_ex.o
                                                  build/stm32f4xx_hal_rcc.o
SystemCoreClockUpdate                             build/system_stm32f4xx.o
SystemInit                                        build/system_stm32f4xx.o
                                                  build/startup_stm32f401xc.o
T                                                 build/thermal_control.o
TAMP_STAMP_IRQHandler                             build/startup_stm32f401xc.o
TARGET_TEMP                                       build/main.o
TEMP_attributes                                   build/main.o
TEMP_manager                                      build/main.o
TEMP_manager_handle                               build/main.o
TIM1_BRK_TIM9_IRQHandler                          build/startup_stm32f401xc.o
TIM1_CC_IRQHandler                                build/startup_stm32f401xc.o
TIM1_TRG_COM_TIM11_IRQHandler                     build/stm32f4xx_it.o
TIM1_UP_TIM10_IRQHandler                          build/startup_stm32f401xc.o
TIM2_IRQHandler                                   build/startup_stm32f401xc.o
TIM3_IRQHandler                                   build/startup_stm32f401xc.o
TIM4_IRQHandler                                   build/startup_stm32f401xc.o
TIM5_IRQHandler                                   build/startup_stm32f401xc.o
TIMEx_DMACommutationCplt                          build/stm32f4xx_hal_tim_ex.o
                                                  build/stm32f4xx_hal_tim.o
TIMEx_DMACommutationHalfCplt                      build/stm32f4xx_hal_tim_ex.o
                                                  build/stm32f4xx_hal_tim.o
TIM_Base_SetConfig                                build/stm32f4xx_hal_tim.o
                                                  build/stm32f4xx_hal_tim_ex.o
TIM_CCxChannelCmd                                 build/stm32f4xx_hal_tim.o
                                                  build/stm32f4xx_hal_tim_ex.o
TIM_DMACaptureCplt                                build/stm32f4xx_hal_tim.o
                                                  build/stm32f4xx_hal_tim_ex.o
TIM_DMACaptureHalfCplt                            build/stm32f4xx_hal_tim.o
                                                  build/stm32f4xx_hal_tim_ex.o
TIM_DMADelayPulseHalfCplt                         build/stm32f4xx_hal_tim.o
                                                  build/stm32f4xx_hal_tim_ex.o
TIM_DMAError                                      build/stm32f4xx_hal_tim.o
                                                  build/stm32f4xx_hal_tim_ex.o
TIM_ETR_SetConfig                                 build/stm32f4xx_hal_tim.o
TIM_OC2_SetConfig                                 build/stm32f4xx_hal_tim.o
                                                  build/stm32f4xx_hal_tim_ex.o
TIM_TI1_SetConfig                                 build/stm32f4xx_hal_tim.o
                                                  build/stm32f4xx_hal_tim_ex.o
USART1_IRQHandler                                 build/startup_stm32f401xc.o
USART2_IRQHandler                                 build/startup_stm32f401xc.o
USART6_IRQHandler                                 build/startup_stm32f401xc.o
USBD_CDC                                          build/usbd_cdc.o
                                                  build/usb_device.o
USBD_CDC_GetDeviceQualifierDescriptor             build/usbd_cdc.o
USBD_CDC_ReceivePacket                            build/usbd_cdc.o
                                                  build/usbd_cdc_if.o
USBD_CDC_RegisterInterface                        build/usbd_cdc.o
                                                  build/usb_device.o
USBD_CDC_SetRxBuffer                              build/usbd_cdc.o
                                                  build/usbd_cdc_if.o
USBD_CDC_SetTxBuffer                              build/usbd_cdc.o
                                                  build/usbd_cdc_if.o
USBD_CDC_TransmitPacket                           build/usbd_cdc.o
                                                  build/usbd_cdc_if.o
USBD_ClrClassConfig                               build/usbd_core.o
                                                  build/usbd_ctlreq.o
USBD_CoreFindEP                                   build/usbd_core.o
                                                  build/usbd_ctlreq.o
USBD_CoreFindIF                                   build/usbd_core.o
                                                  build/usbd_ctlreq.o
USBD_CtlContinueRx                                build/usbd_ioreq.o
                                                  build/usbd_core.o
USBD_CtlContinueSendData                          build/usbd_ioreq.o
                                                  build/usbd_core.o
USBD_CtlError                                     build/usbd_ctlreq.o
                                                  build/usbd_cdc.o
USBD_CtlPrepareRx                                 build/usbd_ioreq.o
                                                  build/usbd_cdc.o
USBD_CtlReceiveStatus                             build/usbd_ioreq.o
                                                  build/usbd_core.o
USBD_CtlSendData                                  build/usbd_ioreq.o
                                                  build/usbd_cdc.o
                                                  build/usbd_ctlreq.o
USBD_CtlSendStatus                                build/usbd_ioreq.o
                                                  build/usbd_ctlreq.o
                                                  build/usbd_core.o
USBD_DeInit                                       build/usbd_core.o
                                                  build/main.o
USBD_FS_ConfigStrDescriptor                       build/usbd_desc.o
USBD_FS_DeviceDesc                                build/usbd_desc.o
USBD_FS_DeviceDescriptor                          build/usbd_desc.o
USBD_FS_InterfaceStrDescriptor                    build/usbd_desc.o
USBD_FS_LangIDStrDescriptor                       build/usbd_desc.o
USBD_FS_ManufacturerStrDescriptor                 build/usbd_desc.o
USBD_FS_ProductStrDescriptor                      build/usbd_desc.o
USBD_FS_SerialStrDescriptor                       build/usbd_desc.o
USBD_GetEpDesc                                    build/usbd_core.o
                                                  build/usbd_cdc.o
USBD_GetNextDesc                                  build/usbd_core.o
USBD_GetRxCount                                   build/usbd_ioreq.o
USBD_GetString                                    build/usbd_ctlreq.o
                                                  build/usbd_desc.o
USBD_Get_USB_Status                               build/usbd_conf.o
USBD_Init                                         build/usbd_core.o
                                                  build/usb_device.o
USBD_Interface_fops_FS                            build/usbd_cdc_if.o
                                                  build/usb_device.o
USBD_LL_ClearStallEP                              build/usbd_conf.o
                                                  build/usbd_ctlreq.o
USBD_LL_CloseEP                                   build/usbd_conf.o
                                                  build/usbd_cdc.o
USBD_LL_DataInStage                               build/usbd_core.o
                                                  build/usbd_conf.o
USBD_LL_DataOutStage                              build/usbd_core.o
                                                  build/usbd_conf.o
USBD_LL_DeInit                                    build/usbd_conf.o
                                                  build/usbd_core.o
USBD_LL_Delay                                     build/usbd_conf.o
USBD_LL_DevConnected                              build/usbd_core.o
                                                  build/usbd_conf.o
                                                  build/main.o
USBD_LL_DevDisconnected                           build/usbd_core.o
                                                  build/usbd_conf.o
USBD_LL_FlushEP                                   build/usbd_conf.o
USBD_LL_GetRxDataSize                             build/usbd_conf.o
                                                  build/usbd_cdc.o
                                                  build/usbd_ioreq.o
USBD_LL_Init                                      build/usbd_conf.o
                                                  build/usbd_core.o
USBD_LL_IsStallEP                                 build/usbd_conf.o
                                                  build/usbd_ctlreq.o
USBD_LL_IsoINIncomplete                           build/usbd_core.o
                                                  build/usbd_conf.o
USBD_LL_IsoOUTIncomplete                          build/usbd_core.o
                                                  build/usbd_conf.o
USBD_LL_OpenEP                                    build/usbd_conf.o
                                                  build/usbd_cdc.o
                                                  build/usbd_core.o
USBD_LL_PrepareReceive                            build/usbd_conf.o
                                                  build/usbd_cdc.o
                                                  build/usbd_ioreq.o
                                                  build/usbd_core.o
USBD_LL_Reset                                     build/usbd_core.o
                                                  build/usbd_conf.o
USBD_LL_Resume                                    build/usbd_core.o
                                                  build/usbd_conf.o
USBD_LL_SOF                                       build/usbd_core.o
                                                  build/usbd_conf.o
USBD_LL_SetSpeed                                  build/usbd_core.o
                                                  build/usbd_conf.o
USBD_LL_SetUSBAddress                             build/usbd_conf.o
                                                  build/usbd_ctlreq.o
USBD_LL_SetupStage                                build/usbd_core.o
                                                  build/usbd_conf.o
USBD_LL_StallEP                                   build/usbd_conf.o
                                                  build/usbd_ctlreq.o
                                                  build/usbd_core.o
USBD_LL_Start                                     build/usbd_conf.o
                                                  build/usbd_core.o
USBD_LL_Stop                                      build/usbd_conf.o
                                                  build/usbd_core.o
USBD_LL_Suspend                                   build/usbd_core.o
                                                  build/usbd_conf.o
USBD_LL_Transmit                                  build/usbd_conf.o
                                                  build/usbd_cdc.o
                                                  build/usbd_ioreq.o
USBD_LangIDDesc                                   build/usbd_desc.o
USBD_ParseSetupRequest                            build/usbd_ctlreq.o
                                                  build/usbd_core.o
USBD_RegisterClass                                build/usbd_core.o
                                                  build/usb_device.o
USBD_RunTestMode                                  build/usbd_core.o
USBD_SetClassConfig                               build/usbd_core.o
                                                  build/usbd_ctlreq.o
USBD_Start                                        build/usbd_core.o
                                                  build/usb_device.o
USBD_StdDevReq                                    build/usbd_ctlreq.o
                                                  build/usbd_core.o
USBD_StdEPReq                                     build/usbd_ctlreq.o
                                                  build/usbd_core.o
USBD_StdItfReq                                    build/usbd_ctlreq.o
                                                  build/usbd_core.o
USBD_Stop                                         build/usbd_core.o
USBD_StrDesc                                      build/usbd_desc.o
USBD_StringSerial                                 build/usbd_desc.o
USBD_static_free                                  build/usbd_conf.o
                                                  build/usbd_cdc.o
USBD_static_malloc                                build/usbd_conf.o
                                                  build/usbd_cdc.o
USB_ActivateDedicatedEndpoint                     build/stm32f4xx_ll_usb.o
USB_ActivateEndpoint                              build/stm32f4xx_ll_usb.o
                                                  build/stm32f4xx_hal_pcd.o
USB_ActivateRemoteWakeup                          build/stm32f4xx_ll_usb.o
                                                  build/stm32f4xx_hal_pcd.o
USB_ActivateSetup                                 build/stm32f4xx_ll_usb.o
                                                  build/stm32f4xx_hal_pcd.o
USB_ClearInterrupts                               build/stm32f4xx_ll_usb.o
USB_CoreInit                                      build/stm32f4xx_ll_usb.o
                                                  build/stm32f4xx_hal_pcd.o
USB_DeActivateRemoteWakeup                        build/stm32f4xx_ll_usb.o
                                                  build/stm32f4xx_hal_pcd.o
USB_DeactivateDedicatedEndpoint                   build/stm32f4xx_ll_usb.o
USB_DeactivateEndpoint                            build/stm32f4xx_ll_usb.o
                                                  build/stm32f4xx_hal_pcd.o
USB_DevConnect                                    build/stm32f4xx_ll_usb.o
                                                  build/stm32f4xx_hal_pcd.o
USB_DevDisconnect                                 build/stm32f4xx_ll_usb.o
                                                  build/stm32f4xx_hal_pcd.o
USB_DevInit                                       build/stm32f4xx_ll_usb.o
                                                  build/stm32f4xx_hal_pcd.o
USB_DisableGlobalInt                              build/stm32f4xx_ll_usb.o
                                                  build/stm32f4xx_hal_pcd.o
USB_DoPing                                        build/stm32f4xx_ll_usb.o
USB_DriveVbus                                     build/stm32f4xx_ll_usb.o
USB_EP0_OutStart                                  build/stm32f4xx_ll_usb.o
                                                  build/stm32f4xx_hal_pcd.o
USB_EPClearStall                                  build/stm32f4xx_ll_usb.o
                                                  build/stm32f4xx_hal_pcd.o
USB_EPSetStall                                    build/stm32f4xx_ll_usb.o
                                                  build/stm32f4xx_hal_pcd.o
USB_EPStartXfer                                   build/stm32f4xx_ll_usb.o
                                                  build/stm32f4xx_hal_pcd.o
USB_EPStopXfer                                    build/stm32f4xx_ll_usb.o
                                                  build/stm32f4xx_hal_pcd.o
USB_EnableGlobalInt                               build/stm32f4xx_ll_usb.o
                                                  build/stm32f4xx_hal_pcd.o
USB_FlushRxFifo                                   build/stm32f4xx_ll_usb.o
                                                  build/stm32f4xx_hal_pcd.o
USB_FlushTxFifo                                   build/stm32f4xx_ll_usb.o
                                                  build/stm32f4xx_hal_pcd.o
USB_GetCurrentFrame                               build/stm32f4xx_ll_usb.o
USB_GetDevSpeed                                   build/stm32f4xx_ll_usb.o
                                                  build/stm32f4xx_hal_pcd.o
USB_GetHostSpeed                                  build/stm32f4xx_ll_usb.o
USB_GetMode                                       build/stm32f4xx_ll_usb.o
                                                  build/stm32f4xx_hal_pcd.o
USB_HC_Halt                                       build/stm32f4xx_ll_usb.o
USB_HC_Init                                       build/stm32f4xx_ll_usb.o
USB_HC_ReadInterrupt                              build/stm32f4xx_ll_usb.o
USB_HC_StartXfer                                  build/stm32f4xx_ll_usb.o
USB_HostInit                                      build/stm32f4xx_ll_usb.o
USB_InitFSLSPClkSel                               build/stm32f4xx_ll_usb.o
USB_ReadChInterrupts                              build/stm32f4xx_ll_usb.o
USB_ReadDevAllInEpInterrupt                       build/stm32f4xx_ll_usb.o
                                                  build/stm32f4xx_hal_pcd.o
USB_ReadDevAllOutEpInterrupt                      build/stm32f4xx_ll_usb.o
                                                  build/stm32f4xx_hal_pcd.o
USB_ReadDevInEPInterrupt                          build/stm32f4xx_ll_usb.o
                                                  build/stm32f4xx_hal_pcd.o
USB_ReadDevOutEPInterrupt                         build/stm32f4xx_ll_usb.o
                                                  build/stm32f4xx_hal_pcd.o
USB_ReadInterrupts                                build/stm32f4xx_ll_usb.o
                                                  build/stm32f4xx_hal_pcd.o
USB_ReadPacket                                    build/stm32f4xx_ll_usb.o
                                                  build/stm32f4xx_hal_pcd.o
USB_ResetPort                                     build/stm32f4xx_ll_usb.o
USB_SetCurrentMode                                build/stm32f4xx_ll_usb.o
                                                  build/stm32f4xx_hal_pcd.o
USB_SetDevAddress                                 build/stm32f4xx_ll_usb.o
                                                  build/stm32f4xx_hal_pcd.o
USB_SetDevSpeed                                   build/stm32f4xx_ll_usb.o
USB_SetTurnaroundTime                             build/stm32f4xx_ll_usb.o
                                                  build/stm32f4xx_hal_pcd.o
USB_StopDevice                                    build/stm32f4xx_ll_usb.o
                                                  build/stm32f4xx_hal_pcd.o
USB_StopHost                                      build/stm32f4xx_ll_usb.o
USB_WritePacket                                   build/stm32f4xx_ll_usb.o
                                                  build/stm32f4xx_hal_pcd.o
UsageFault_Handler                                build/stm32f4xx_it.o
UserRxBufferFS                                    build/usbd_cdc_if.o
                                                  build/main.o
UserTxBufferFS                                    build/usbd_cdc_if.o
WWDG_IRQHandler                                   build/startup_stm32f401xc.o
_ITM_deregisterTMCloneTable                       c:/Program Files/ARMtoolchain/bin/../lib/gcc/arm-none-eabi/14.2.1/thumb/v7e-m+fp/hard/crtbegin.o
_ITM_registerTMCloneTable                         c:/Program Files/ARMtoolchain/bin/../lib/gcc/arm-none-eabi/14.2.1/thumb/v7e-m+fp/hard/crtbegin.o
__TMC_END__                                       c:/Program Files/ARMtoolchain/bin/../lib/gcc/arm-none-eabi/14.2.1/thumb/v7e-m+fp/hard/crtend.o
                                                  c:/Program Files/ARMtoolchain/bin/../lib/gcc/arm-none-eabi/14.2.1/thumb/v7e-m+fp/hard/crtbegin.o
__adddf3                                          c:/Program Files/ARMtoolchain/bin/../lib/gcc/arm-none-eabi/14.2.1/thumb/v7e-m+fp/hard\libgcc.a(_arm_addsubdf3.o)
__aeabi_cdcmpeq                                   c:/Program Files/ARMtoolchain/bin/../lib/gcc/arm-none-eabi/14.2.1/thumb/v7e-m+fp/hard\libgcc.a(_arm_cmpdf2.o)
__aeabi_cdcmple                                   c:/Program Files/ARMtoolchain/bin/../lib/gcc/arm-none-eabi/14.2.1/thumb/v7e-m+fp/hard\libgcc.a(_arm_cmpdf2.o)
__aeabi_cdrcmple                                  c:/Program Files/ARMtoolchain/bin/../lib/gcc/arm-none-eabi/14.2.1/thumb/v7e-m+fp/hard\libgcc.a(_arm_cmpdf2.o)
__aeabi_d2uiz                                     c:/Program Files/ARMtoolchain/bin/../lib/gcc/arm-none-eabi/14.2.1/thumb/v7e-m+fp/hard\libgcc.a(_arm_fixunsdfsi.o)
                                                  build/main.o
__aeabi_dadd                                      c:/Program Files/ARMtoolchain/bin/../lib/gcc/arm-none-eabi/14.2.1/thumb/v7e-m+fp/hard\libgcc.a(_arm_addsubdf3.o)
                                                  c:/Program Files/ARMtoolchain/bin/../lib/gcc/arm-none-eabi/14.2.1/thumb/v7e-m+fp/hard\libm.a(libm_a-e_log.o)
                                                  c:/Program Files/ARMtoolchain/bin/../lib/gcc/arm-none-eabi/14.2.1/thumb/v7e-m+fp/hard\libm.a(libm_a-s_round.o)
                                                  build/thermal_control.o
__aeabi_dcmpeq                                    c:/Program Files/ARMtoolchain/bin/../lib/gcc/arm-none-eabi/14.2.1/thumb/v7e-m+fp/hard\libgcc.a(_arm_cmpdf2.o)
                                                  c:/Program Files/ARMtoolchain/bin/../lib/gcc/arm-none-eabi/14.2.1/thumb/v7e-m+fp/hard\libm.a(libm_a-e_log.o)
                                                  c:/Program Files/ARMtoolchain/bin/../lib/gcc/arm-none-eabi/14.2.1/thumb/v7e-m+fp/hard\libm.a(libm_a-w_log.o)
__aeabi_dcmpge                                    c:/Program Files/ARMtoolchain/bin/../lib/gcc/arm-none-eabi/14.2.1/thumb/v7e-m+fp/hard\libgcc.a(_arm_cmpdf2.o)
__aeabi_dcmpgt                                    c:/Program Files/ARMtoolchain/bin/../lib/gcc/arm-none-eabi/14.2.1/thumb/v7e-m+fp/hard\libgcc.a(_arm_cmpdf2.o)
                                                  c:/Program Files/ARMtoolchain/bin/../lib/gcc/arm-none-eabi/14.2.1/thumb/v7e-m+fp/hard\libm.a(libm_a-w_log.o)
__aeabi_dcmple                                    c:/Program Files/ARMtoolchain/bin/../lib/gcc/arm-none-eabi/14.2.1/thumb/v7e-m+fp/hard\libgcc.a(_arm_cmpdf2.o)
__aeabi_dcmplt                                    c:/Program Files/ARMtoolchain/bin/../lib/gcc/arm-none-eabi/14.2.1/thumb/v7e-m+fp/hard\libgcc.a(_arm_cmpdf2.o)
__aeabi_dcmpun                                    c:/Program Files/ARMtoolchain/bin/../lib/gcc/arm-none-eabi/14.2.1/thumb/v7e-m+fp/hard\libgcc.a(_arm_unorddf2.o)
                                                  c:/Program Files/ARMtoolchain/bin/../lib/gcc/arm-none-eabi/14.2.1/thumb/v7e-m+fp/hard\libm.a(libm_a-w_log.o)
__aeabi_ddiv                                      c:/Program Files/ARMtoolchain/bin/../lib/gcc/arm-none-eabi/14.2.1/thumb/v7e-m+fp/hard\libgcc.a(_arm_muldivdf3.o)
                                                  c:/Program Files/ARMtoolchain/bin/../lib/gcc/arm-none-eabi/14.2.1/thumb/v7e-m+fp/hard\libm.a(libm_a-e_log.o)
                                                  build/thermal_control.o
                                                  build/main.o
__aeabi_dmul                                      c:/Program Files/ARMtoolchain/bin/../lib/gcc/arm-none-eabi/14.2.1/thumb/v7e-m+fp/hard\libgcc.a(_arm_muldivdf3.o)
                                                  c:/Program Files/ARMtoolchain/bin/../lib/gcc/arm-none-eabi/14.2.1/thumb/v7e-m+fp/hard\libgcc.a(_arm_muldf3.o)
                                                  c:/Program Files/ARMtoolchain/bin/../lib/gcc/arm-none-eabi/14.2.1/thumb/v7e-m+fp/hard\libm.a(libm_a-e_log.o)
                                                  build/thermal_control.o
                                                  build/main.o
__aeabi_drsub                                     c:/Program Files/ARMtoolchain/bin/../lib/gcc/arm-none-eabi/14.2.1/thumb/v7e-m+fp/hard\libgcc.a(_arm_addsubdf3.o)
__aeabi_dsub                                      c:/Program Files/ARMtoolchain/bin/../lib/gcc/arm-none-eabi/14.2.1/thumb/v7e-m+fp/hard\libgcc.a(_arm_addsubdf3.o)
                                                  c:/Program Files/ARMtoolchain/bin/../lib/gcc/arm-none-eabi/14.2.1/thumb/v7e-m+fp/hard\libm.a(libm_a-e_log.o)
                                                  build/thermal_control.o
                                                  build/main.o
__aeabi_f2d                                       c:/Program Files/ARMtoolchain/bin/../lib/gcc/arm-none-eabi/14.2.1/thumb/v7e-m+fp/hard\libgcc.a(_arm_addsubdf3.o)
                                                  build/main.o
__aeabi_i2d                                       c:/Program Files/ARMtoolchain/bin/../lib/gcc/arm-none-eabi/14.2.1/thumb/v7e-m+fp/hard\libgcc.a(_arm_addsubdf3.o)
                                                  c:/Program Files/ARMtoolchain/bin/../lib/gcc/arm-none-eabi/14.2.1/thumb/v7e-m+fp/hard\libm.a(libm_a-e_log.o)
__aeabi_idiv0                                     c:/Program Files/ARMtoolchain/bin/../lib/gcc/arm-none-eabi/14.2.1/thumb/v7e-m+fp/hard\libgcc.a(_dvmd_tls.o)
__aeabi_l2d                                       c:/Program Files/ARMtoolchain/bin/../lib/gcc/arm-none-eabi/14.2.1/thumb/v7e-m+fp/hard\libgcc.a(_arm_addsubdf3.o)
__aeabi_ldiv0                                     c:/Program Files/ARMtoolchain/bin/../lib/gcc/arm-none-eabi/14.2.1/thumb/v7e-m+fp/hard\libgcc.a(_dvmd_tls.o)
                                                  c:/Program Files/ARMtoolchain/bin/../lib/gcc/arm-none-eabi/14.2.1/thumb/v7e-m+fp/hard\libgcc.a(_aeabi_uldivmod.o)
__aeabi_ui2d                                      c:/Program Files/ARMtoolchain/bin/../lib/gcc/arm-none-eabi/14.2.1/thumb/v7e-m+fp/hard\libgcc.a(_arm_addsubdf3.o)
                                                  build/thermal_control.o
__aeabi_ul2d                                      c:/Program Files/ARMtoolchain/bin/../lib/gcc/arm-none-eabi/14.2.1/thumb/v7e-m+fp/hard\libgcc.a(_arm_addsubdf3.o)
__aeabi_uldivmod                                  c:/Program Files/ARMtoolchain/bin/../lib/gcc/arm-none-eabi/14.2.1/thumb/v7e-m+fp/hard\libgcc.a(_aeabi_uldivmod.o)
                                                  build/stm32f4xx_hal_rcc.o
__bss_end__                                       c:/Program Files/ARMtoolchain/bin/../lib/gcc/arm-none-eabi/14.2.1/thumb/v7e-m+fp/hard/crt0.o
__bss_start__                                     c:/Program Files/ARMtoolchain/bin/../lib/gcc/arm-none-eabi/14.2.1/thumb/v7e-m+fp/hard/crt0.o
__call_exitprocs                                  c:/Program Files/ARMtoolchain/bin/../lib/gcc/arm-none-eabi/14.2.1/thumb/v7e-m+fp/hard\libc_nano.a(libc_a-exit.o)
__cmpdf2                                          c:/Program Files/ARMtoolchain/bin/../lib/gcc/arm-none-eabi/14.2.1/thumb/v7e-m+fp/hard\libgcc.a(_arm_cmpdf2.o)
__deregister_frame_info                           c:/Program Files/ARMtoolchain/bin/../lib/gcc/arm-none-eabi/14.2.1/thumb/v7e-m+fp/hard/crtbegin.o
__divdf3                                          c:/Program Files/ARMtoolchain/bin/../lib/gcc/arm-none-eabi/14.2.1/thumb/v7e-m+fp/hard\libgcc.a(_arm_muldivdf3.o)
__dso_handle                                      c:/Program Files/ARMtoolchain/bin/../lib/gcc/arm-none-eabi/14.2.1/thumb/v7e-m+fp/hard/crtbegin.o
__eqdf2                                           c:/Program Files/ARMtoolchain/bin/../lib/gcc/arm-none-eabi/14.2.1/thumb/v7e-m+fp/hard\libgcc.a(_arm_cmpdf2.o)
__errno                                           c:/Program Files/ARMtoolchain/bin/../lib/gcc/arm-none-eabi/14.2.1/thumb/v7e-m+fp/hard\libc_nano.a(libc_a-errno.o)
                                                  c:/Program Files/ARMtoolchain/bin/../lib/gcc/arm-none-eabi/14.2.1/thumb/v7e-m+fp/hard\libm.a(libm_a-w_log.o)
__extendsfdf2                                     c:/Program Files/ARMtoolchain/bin/../lib/gcc/arm-none-eabi/14.2.1/thumb/v7e-m+fp/hard\libgcc.a(_arm_addsubdf3.o)
__fixunsdfsi                                      c:/Program Files/ARMtoolchain/bin/../lib/gcc/arm-none-eabi/14.2.1/thumb/v7e-m+fp/hard\libgcc.a(_arm_fixunsdfsi.o)
__floatdidf                                       c:/Program Files/ARMtoolchain/bin/../lib/gcc/arm-none-eabi/14.2.1/thumb/v7e-m+fp/hard\libgcc.a(_arm_addsubdf3.o)
__floatsidf                                       c:/Program Files/ARMtoolchain/bin/../lib/gcc/arm-none-eabi/14.2.1/thumb/v7e-m+fp/hard\libgcc.a(_arm_addsubdf3.o)
__floatundidf                                     c:/Program Files/ARMtoolchain/bin/../lib/gcc/arm-none-eabi/14.2.1/thumb/v7e-m+fp/hard\libgcc.a(_arm_addsubdf3.o)
__floatunsidf                                     c:/Program Files/ARMtoolchain/bin/../lib/gcc/arm-none-eabi/14.2.1/thumb/v7e-m+fp/hard\libgcc.a(_arm_addsubdf3.o)
__fp_lock_all                                     c:/Program Files/ARMtoolchain/bin/../lib/gcc/arm-none-eabi/14.2.1/thumb/v7e-m+fp/hard\libc_nano.a(libc_a-findfp.o)
__fp_unlock_all                                   c:/Program Files/ARMtoolchain/bin/../lib/gcc/arm-none-eabi/14.2.1/thumb/v7e-m+fp/hard\libc_nano.a(libc_a-findfp.o)
__gedf2                                           c:/Program Files/ARMtoolchain/bin/../lib/gcc/arm-none-eabi/14.2.1/thumb/v7e-m+fp/hard\libgcc.a(_arm_cmpdf2.o)
__gtdf2                                           c:/Program Files/ARMtoolchain/bin/../lib/gcc/arm-none-eabi/14.2.1/thumb/v7e-m+fp/hard\libgcc.a(_arm_cmpdf2.o)
__ieee754_log                                     c:/Program Files/ARMtoolchain/bin/../lib/gcc/arm-none-eabi/14.2.1/thumb/v7e-m+fp/hard\libm.a(libm_a-e_log.o)
                                                  c:/Program Files/ARMtoolchain/bin/../lib/gcc/arm-none-eabi/14.2.1/thumb/v7e-m+fp/hard\libm.a(libm_a-w_log.o)
__init_array_end                                  c:/Program Files/ARMtoolchain/bin/../lib/gcc/arm-none-eabi/14.2.1/thumb/v7e-m+fp/hard\libc_nano.a(libc_a-init.o)
__init_array_start                                c:/Program Files/ARMtoolchain/bin/../lib/gcc/arm-none-eabi/14.2.1/thumb/v7e-m+fp/hard\libc_nano.a(libc_a-init.o)
__ledf2                                           c:/Program Files/ARMtoolchain/bin/../lib/gcc/arm-none-eabi/14.2.1/thumb/v7e-m+fp/hard\libgcc.a(_arm_cmpdf2.o)
__libc_fini_array                                 c:/Program Files/ARMtoolchain/bin/../lib/gcc/arm-none-eabi/14.2.1/thumb/v7e-m+fp/hard/crt0.o
__libc_init_array                                 c:/Program Files/ARMtoolchain/bin/../lib/gcc/arm-none-eabi/14.2.1/thumb/v7e-m+fp/hard\libc_nano.a(libc_a-init.o)
                                                  build/startup_stm32f401xc.o
                                                  c:/Program Files/ARMtoolchain/bin/../lib/gcc/arm-none-eabi/14.2.1/thumb/v7e-m+fp/hard/crt0.o
__lock___arc4random_mutex                         c:/Program Files/ARMtoolchain/bin/../lib/gcc/arm-none-eabi/14.2.1/thumb/v7e-m+fp/hard\libc_nano.a(libc_a-lock.o)
__lock___at_quick_exit_mutex                      c:/Program Files/ARMtoolchain/bin/../lib/gcc/arm-none-eabi/14.2.1/thumb/v7e-m+fp/hard\libc_nano.a(libc_a-lock.o)
__lock___atexit_recursive_mutex                   c:/Program Files/ARMtoolchain/bin/../lib/gcc/arm-none-eabi/14.2.1/thumb/v7e-m+fp/hard\libc_nano.a(libc_a-lock.o)
__lock___dd_hash_mutex                            c:/Program Files/ARMtoolchain/bin/../lib/gcc/arm-none-eabi/14.2.1/thumb/v7e-m+fp/hard\libc_nano.a(libc_a-lock.o)
__lock___env_recursive_mutex                      c:/Program Files/ARMtoolchain/bin/../lib/gcc/arm-none-eabi/14.2.1/thumb/v7e-m+fp/hard\libc_nano.a(libc_a-lock.o)
__lock___malloc_recursive_mutex                   c:/Program Files/ARMtoolchain/bin/../lib/gcc/arm-none-eabi/14.2.1/thumb/v7e-m+fp/hard\libc_nano.a(libc_a-lock.o)
                                                  c:/Program Files/ARMtoolchain/bin/../lib/gcc/arm-none-eabi/14.2.1/thumb/v7e-m+fp/hard\libc_nano.a(libc_a-mlock.o)
__lock___sfp_recursive_mutex                      c:/Program Files/ARMtoolchain/bin/../lib/gcc/arm-none-eabi/14.2.1/thumb/v7e-m+fp/hard\libc_nano.a(libc_a-lock.o)
                                                  c:/Program Files/ARMtoolchain/bin/../lib/gcc/arm-none-eabi/14.2.1/thumb/v7e-m+fp/hard\libc_nano.a(libc_a-findfp.o)
__lock___tz_mutex                                 c:/Program Files/ARMtoolchain/bin/../lib/gcc/arm-none-eabi/14.2.1/thumb/v7e-m+fp/hard\libc_nano.a(libc_a-lock.o)
__ltdf2                                           c:/Program Files/ARMtoolchain/bin/../lib/gcc/arm-none-eabi/14.2.1/thumb/v7e-m+fp/hard\libgcc.a(_arm_cmpdf2.o)
__malloc_free_list                                c:/Program Files/ARMtoolchain/bin/../lib/gcc/arm-none-eabi/14.2.1/thumb/v7e-m+fp/hard\libc_nano.a(libc_a-mallocr.o)
                                                  c:/Program Files/ARMtoolchain/bin/../lib/gcc/arm-none-eabi/14.2.1/thumb/v7e-m+fp/hard\libc_nano.a(libc_a-freer.o)
__malloc_lock                                     c:/Program Files/ARMtoolchain/bin/../lib/gcc/arm-none-eabi/14.2.1/thumb/v7e-m+fp/hard\libc_nano.a(libc_a-mlock.o)
                                                  c:/Program Files/ARMtoolchain/bin/../lib/gcc/arm-none-eabi/14.2.1/thumb/v7e-m+fp/hard\libc_nano.a(libc_a-mallocr.o)
                                                  c:/Program Files/ARMtoolchain/bin/../lib/gcc/arm-none-eabi/14.2.1/thumb/v7e-m+fp/hard\libc_nano.a(libc_a-freer.o)
__malloc_sbrk_start                               c:/Program Files/ARMtoolchain/bin/../lib/gcc/arm-none-eabi/14.2.1/thumb/v7e-m+fp/hard\libc_nano.a(libc_a-mallocr.o)
__malloc_unlock                                   c:/Program Files/ARMtoolchain/bin/../lib/gcc/arm-none-eabi/14.2.1/thumb/v7e-m+fp/hard\libc_nano.a(libc_a-mlock.o)
                                                  c:/Program Files/ARMtoolchain/bin/../lib/gcc/arm-none-eabi/14.2.1/thumb/v7e-m+fp/hard\libc_nano.a(libc_a-mallocr.o)
                                                  c:/Program Files/ARMtoolchain/bin/../lib/gcc/arm-none-eabi/14.2.1/thumb/v7e-m+fp/hard\libc_nano.a(libc_a-freer.o)
__muldf3                                          c:/Program Files/ARMtoolchain/bin/../lib/gcc/arm-none-eabi/14.2.1/thumb/v7e-m+fp/hard\libgcc.a(_arm_muldivdf3.o)
                                                  c:/Program Files/ARMtoolchain/bin/../lib/gcc/arm-none-eabi/14.2.1/thumb/v7e-m+fp/hard\libgcc.a(_arm_muldf3.o)
__nedf2                                           c:/Program Files/ARMtoolchain/bin/../lib/gcc/arm-none-eabi/14.2.1/thumb/v7e-m+fp/hard\libgcc.a(_arm_cmpdf2.o)
__preinit_array_end                               c:/Program Files/ARMtoolchain/bin/../lib/gcc/arm-none-eabi/14.2.1/thumb/v7e-m+fp/hard\libc_nano.a(libc_a-init.o)
__preinit_array_start                             c:/Program Files/ARMtoolchain/bin/../lib/gcc/arm-none-eabi/14.2.1/thumb/v7e-m+fp/hard\libc_nano.a(libc_a-init.o)
__register_frame_info                             c:/Program Files/ARMtoolchain/bin/../lib/gcc/arm-none-eabi/14.2.1/thumb/v7e-m+fp/hard/crtbegin.o
__retarget_lock_acquire                           c:/Program Files/ARMtoolchain/bin/../lib/gcc/arm-none-eabi/14.2.1/thumb/v7e-m+fp/hard\libc_nano.a(libc_a-lock.o)
__retarget_lock_acquire_recursive                 c:/Program Files/ARMtoolchain/bin/../lib/gcc/arm-none-eabi/14.2.1/thumb/v7e-m+fp/hard\libc_nano.a(libc_a-lock.o)
                                                  c:/Program Files/ARMtoolchain/bin/../lib/gcc/arm-none-eabi/14.2.1/thumb/v7e-m+fp/hard\libc_nano.a(libc_a-fflush.o)
                                                  c:/Program Files/ARMtoolchain/bin/../lib/gcc/arm-none-eabi/14.2.1/thumb/v7e-m+fp/hard\libc_nano.a(libc_a-nano-vfprintf.o)
                                                  c:/Program Files/ARMtoolchain/bin/../lib/gcc/arm-none-eabi/14.2.1/thumb/v7e-m+fp/hard\libc_nano.a(libc_a-mlock.o)
                                                  c:/Program Files/ARMtoolchain/bin/../lib/gcc/arm-none-eabi/14.2.1/thumb/v7e-m+fp/hard\libc_nano.a(libc_a-puts.o)
                                                  c:/Program Files/ARMtoolchain/bin/../lib/gcc/arm-none-eabi/14.2.1/thumb/v7e-m+fp/hard\libc_nano.a(libc_a-findfp.o)
__retarget_lock_close                             c:/Program Files/ARMtoolchain/bin/../lib/gcc/arm-none-eabi/14.2.1/thumb/v7e-m+fp/hard\libc_nano.a(libc_a-lock.o)
__retarget_lock_close_recursive                   c:/Program Files/ARMtoolchain/bin/../lib/gcc/arm-none-eabi/14.2.1/thumb/v7e-m+fp/hard\libc_nano.a(libc_a-lock.o)
__retarget_lock_init                              c:/Program Files/ARMtoolchain/bin/../lib/gcc/arm-none-eabi/14.2.1/thumb/v7e-m+fp/hard\libc_nano.a(libc_a-lock.o)
__retarget_lock_init_recursive                    c:/Program Files/ARMtoolchain/bin/../lib/gcc/arm-none-eabi/14.2.1/thumb/v7e-m+fp/hard\libc_nano.a(libc_a-lock.o)
                                                  c:/Program Files/ARMtoolchain/bin/../lib/gcc/arm-none-eabi/14.2.1/thumb/v7e-m+fp/hard\libc_nano.a(libc_a-findfp.o)
__retarget_lock_release                           c:/Program Files/ARMtoolchain/bin/../lib/gcc/arm-none-eabi/14.2.1/thumb/v7e-m+fp/hard\libc_nano.a(libc_a-lock.o)
__retarget_lock_release_recursive                 c:/Program Files/ARMtoolchain/bin/../lib/gcc/arm-none-eabi/14.2.1/thumb/v7e-m+fp/hard\libc_nano.a(libc_a-lock.o)
                                                  c:/Program Files/ARMtoolchain/bin/../lib/gcc/arm-none-eabi/14.2.1/thumb/v7e-m+fp/hard\libc_nano.a(libc_a-fflush.o)
                                                  c:/Program Files/ARMtoolchain/bin/../lib/gcc/arm-none-eabi/14.2.1/thumb/v7e-m+fp/hard\libc_nano.a(libc_a-nano-vfprintf.o)
                                                  c:/Program Files/ARMtoolchain/bin/../lib/gcc/arm-none-eabi/14.2.1/thumb/v7e-m+fp/hard\libc_nano.a(libc_a-mlock.o)
                                                  c:/Program Files/ARMtoolchain/bin/../lib/gcc/arm-none-eabi/14.2.1/thumb/v7e-m+fp/hard\libc_nano.a(libc_a-puts.o)
                                                  c:/Program Files/ARMtoolchain/bin/../lib/gcc/arm-none-eabi/14.2.1/thumb/v7e-m+fp/hard\libc_nano.a(libc_a-findfp.o)
__retarget_lock_try_acquire                       c:/Program Files/ARMtoolchain/bin/../lib/gcc/arm-none-eabi/14.2.1/thumb/v7e-m+fp/hard\libc_nano.a(libc_a-lock.o)
__retarget_lock_try_acquire_recursive             c:/Program Files/ARMtoolchain/bin/../lib/gcc/arm-none-eabi/14.2.1/thumb/v7e-m+fp/hard\libc_nano.a(libc_a-lock.o)
__sclose                                          c:/Program Files/ARMtoolchain/bin/../lib/gcc/arm-none-eabi/14.2.1/thumb/v7e-m+fp/hard\libc_nano.a(libc_a-stdio.o)
                                                  c:/Program Files/ARMtoolchain/bin/../lib/gcc/arm-none-eabi/14.2.1/thumb/v7e-m+fp/hard\libc_nano.a(libc_a-findfp.o)
__seofread                                        c:/Program Files/ARMtoolchain/bin/../lib/gcc/arm-none-eabi/14.2.1/thumb/v7e-m+fp/hard\libc_nano.a(libc_a-stdio.o)
__sf                                              c:/Program Files/ARMtoolchain/bin/../lib/gcc/arm-none-eabi/14.2.1/thumb/v7e-m+fp/hard\libc_nano.a(libc_a-findfp.o)
                                                  c:/Program Files/ARMtoolchain/bin/../lib/gcc/arm-none-eabi/14.2.1/thumb/v7e-m+fp/hard\libc_nano.a(libc_a-impure.o)
                                                  build/tasks.o
__sflush_r                                        c:/Program Files/ARMtoolchain/bin/../lib/gcc/arm-none-eabi/14.2.1/thumb/v7e-m+fp/hard\libc_nano.a(libc_a-fflush.o)
__sfp                                             c:/Program Files/ARMtoolchain/bin/../lib/gcc/arm-none-eabi/14.2.1/thumb/v7e-m+fp/hard\libc_nano.a(libc_a-findfp.o)
__sfp_lock_acquire                                c:/Program Files/ARMtoolchain/bin/../lib/gcc/arm-none-eabi/14.2.1/thumb/v7e-m+fp/hard\libc_nano.a(libc_a-findfp.o)
__sfp_lock_release                                c:/Program Files/ARMtoolchain/bin/../lib/gcc/arm-none-eabi/14.2.1/thumb/v7e-m+fp/hard\libc_nano.a(libc_a-findfp.o)
__sfputs_r                                        c:/Program Files/ARMtoolchain/bin/../lib/gcc/arm-none-eabi/14.2.1/thumb/v7e-m+fp/hard\libc_nano.a(libc_a-nano-vfprintf.o)
__sfvwrite_r                                      c:/Program Files/ARMtoolchain/bin/../lib/gcc/arm-none-eabi/14.2.1/thumb/v7e-m+fp/hard\libc_nano.a(libc_a-fvwrite.o)
                                                  c:/Program Files/ARMtoolchain/bin/../lib/gcc/arm-none-eabi/14.2.1/thumb/v7e-m+fp/hard\libc_nano.a(libc_a-nano-vfprintf.o)
__sglue                                           c:/Program Files/ARMtoolchain/bin/../lib/gcc/arm-none-eabi/14.2.1/thumb/v7e-m+fp/hard\libc_nano.a(libc_a-findfp.o)
                                                  c:/Program Files/ARMtoolchain/bin/../lib/gcc/arm-none-eabi/14.2.1/thumb/v7e-m+fp/hard\libc_nano.a(libc_a-fflush.o)
__sinit                                           c:/Program Files/ARMtoolchain/bin/../lib/gcc/arm-none-eabi/14.2.1/thumb/v7e-m+fp/hard\libc_nano.a(libc_a-findfp.o)
                                                  c:/Program Files/ARMtoolchain/bin/../lib/gcc/arm-none-eabi/14.2.1/thumb/v7e-m+fp/hard\libc_nano.a(libc_a-fflush.o)
                                                  c:/Program Files/ARMtoolchain/bin/../lib/gcc/arm-none-eabi/14.2.1/thumb/v7e-m+fp/hard\libc_nano.a(libc_a-nano-vfprintf.o)
                                                  c:/Program Files/ARMtoolchain/bin/../lib/gcc/arm-none-eabi/14.2.1/thumb/v7e-m+fp/hard\libc_nano.a(libc_a-wsetup.o)
                                                  c:/Program Files/ARMtoolchain/bin/../lib/gcc/arm-none-eabi/14.2.1/thumb/v7e-m+fp/hard\libc_nano.a(libc_a-wbuf.o)
                                                  c:/Program Files/ARMtoolchain/bin/../lib/gcc/arm-none-eabi/14.2.1/thumb/v7e-m+fp/hard\libc_nano.a(libc_a-puts.o)
__smakebuf_r                                      c:/Program Files/ARMtoolchain/bin/../lib/gcc/arm-none-eabi/14.2.1/thumb/v7e-m+fp/hard\libc_nano.a(libc_a-makebuf.o)
                                                  c:/Program Files/ARMtoolchain/bin/../lib/gcc/arm-none-eabi/14.2.1/thumb/v7e-m+fp/hard\libc_nano.a(libc_a-wsetup.o)
__sprint_r                                        c:/Program Files/ARMtoolchain/bin/../lib/gcc/arm-none-eabi/14.2.1/thumb/v7e-m+fp/hard\libc_nano.a(libc_a-nano-vfprintf.o)
__sread                                           c:/Program Files/ARMtoolchain/bin/../lib/gcc/arm-none-eabi/14.2.1/thumb/v7e-m+fp/hard\libc_nano.a(libc_a-stdio.o)
                                                  c:/Program Files/ARMtoolchain/bin/../lib/gcc/arm-none-eabi/14.2.1/thumb/v7e-m+fp/hard\libc_nano.a(libc_a-findfp.o)
__sseek                                           c:/Program Files/ARMtoolchain/bin/../lib/gcc/arm-none-eabi/14.2.1/thumb/v7e-m+fp/hard\libc_nano.a(libc_a-stdio.o)
                                                  c:/Program Files/ARMtoolchain/bin/../lib/gcc/arm-none-eabi/14.2.1/thumb/v7e-m+fp/hard\libc_nano.a(libc_a-findfp.o)
__stack                                           c:/Program Files/ARMtoolchain/bin/../lib/gcc/arm-none-eabi/14.2.1/thumb/v7e-m+fp/hard/crt0.o
__stdio_exit_handler                              c:/Program Files/ARMtoolchain/bin/../lib/gcc/arm-none-eabi/14.2.1/thumb/v7e-m+fp/hard\libc_nano.a(libc_a-findfp.o)
                                                  c:/Program Files/ARMtoolchain/bin/../lib/gcc/arm-none-eabi/14.2.1/thumb/v7e-m+fp/hard\libc_nano.a(libc_a-exit.o)
__subdf3                                          c:/Program Files/ARMtoolchain/bin/../lib/gcc/arm-none-eabi/14.2.1/thumb/v7e-m+fp/hard\libgcc.a(_arm_addsubdf3.o)
__swbuf                                           c:/Program Files/ARMtoolchain/bin/../lib/gcc/arm-none-eabi/14.2.1/thumb/v7e-m+fp/hard\libc_nano.a(libc_a-wbuf.o)
__swbuf_r                                         c:/Program Files/ARMtoolchain/bin/../lib/gcc/arm-none-eabi/14.2.1/thumb/v7e-m+fp/hard\libc_nano.a(libc_a-wbuf.o)
                                                  c:/Program Files/ARMtoolchain/bin/../lib/gcc/arm-none-eabi/14.2.1/thumb/v7e-m+fp/hard\libc_nano.a(libc_a-nano-vfprintf.o)
                                                  c:/Program Files/ARMtoolchain/bin/../lib/gcc/arm-none-eabi/14.2.1/thumb/v7e-m+fp/hard\libc_nano.a(libc_a-puts.o)
__swhatbuf_r                                      c:/Program Files/ARMtoolchain/bin/../lib/gcc/arm-none-eabi/14.2.1/thumb/v7e-m+fp/hard\libc_nano.a(libc_a-makebuf.o)
__swrite                                          c:/Program Files/ARMtoolchain/bin/../lib/gcc/arm-none-eabi/14.2.1/thumb/v7e-m+fp/hard\libc_nano.a(libc_a-stdio.o)
                                                  c:/Program Files/ARMtoolchain/bin/../lib/gcc/arm-none-eabi/14.2.1/thumb/v7e-m+fp/hard\libc_nano.a(libc_a-findfp.o)
__swsetup_r                                       c:/Program Files/ARMtoolchain/bin/../lib/gcc/arm-none-eabi/14.2.1/thumb/v7e-m+fp/hard\libc_nano.a(libc_a-wsetup.o)
                                                  c:/Program Files/ARMtoolchain/bin/../lib/gcc/arm-none-eabi/14.2.1/thumb/v7e-m+fp/hard\libc_nano.a(libc_a-fvwrite.o)
                                                  c:/Program Files/ARMtoolchain/bin/../lib/gcc/arm-none-eabi/14.2.1/thumb/v7e-m+fp/hard\libc_nano.a(libc_a-nano-vfprintf.o)
                                                  c:/Program Files/ARMtoolchain/bin/../lib/gcc/arm-none-eabi/14.2.1/thumb/v7e-m+fp/hard\libc_nano.a(libc_a-wbuf.o)
                                                  c:/Program Files/ARMtoolchain/bin/../lib/gcc/arm-none-eabi/14.2.1/thumb/v7e-m+fp/hard\libc_nano.a(libc_a-puts.o)
__udivmoddi4                                      c:/Program Files/ARMtoolchain/bin/../lib/gcc/arm-none-eabi/14.2.1/thumb/v7e-m+fp/hard\libgcc.a(_udivmoddi4.o)
                                                  c:/Program Files/ARMtoolchain/bin/../lib/gcc/arm-none-eabi/14.2.1/thumb/v7e-m+fp/hard\libgcc.a(_aeabi_uldivmod.o)
__unorddf2                                        c:/Program Files/ARMtoolchain/bin/../lib/gcc/arm-none-eabi/14.2.1/thumb/v7e-m+fp/hard\libgcc.a(_arm_unorddf2.o)
_close                                            c:/Program Files/ARMtoolchain/bin/../lib/gcc/arm-none-eabi/14.2.1/thumb/v7e-m+fp/hard\libnosys.a(close.o)
                                                  c:/Program Files/ARMtoolchain/bin/../lib/gcc/arm-none-eabi/14.2.1/thumb/v7e-m+fp/hard\libc_nano.a(libc_a-closer.o)
_close_r                                          c:/Program Files/ARMtoolchain/bin/../lib/gcc/arm-none-eabi/14.2.1/thumb/v7e-m+fp/hard\libc_nano.a(libc_a-closer.o)
                                                  c:/Program Files/ARMtoolchain/bin/../lib/gcc/arm-none-eabi/14.2.1/thumb/v7e-m+fp/hard\libc_nano.a(libc_a-stdio.o)
_ebss                                             build/startup_stm32f401xc.o
_edata                                            build/startup_stm32f401xc.o
_estack                                           build/startup_stm32f401xc.o
_exit                                             c:/Program Files/ARMtoolchain/bin/../lib/gcc/arm-none-eabi/14.2.1/thumb/v7e-m+fp/hard\libnosys.a(_exit.o)
                                                  c:/Program Files/ARMtoolchain/bin/../lib/gcc/arm-none-eabi/14.2.1/thumb/v7e-m+fp/hard\libc_nano.a(libc_a-exit.o)
_fflush_r                                         c:/Program Files/ARMtoolchain/bin/../lib/gcc/arm-none-eabi/14.2.1/thumb/v7e-m+fp/hard\libc_nano.a(libc_a-fflush.o)
                                                  c:/Program Files/ARMtoolchain/bin/../lib/gcc/arm-none-eabi/14.2.1/thumb/v7e-m+fp/hard\libc_nano.a(libc_a-fvwrite.o)
                                                  c:/Program Files/ARMtoolchain/bin/../lib/gcc/arm-none-eabi/14.2.1/thumb/v7e-m+fp/hard\libc_nano.a(libc_a-wbuf.o)
                                                  c:/Program Files/ARMtoolchain/bin/../lib/gcc/arm-none-eabi/14.2.1/thumb/v7e-m+fp/hard\libc_nano.a(libc_a-findfp.o)
_fini                                             c:/Program Files/ARMtoolchain/bin/../lib/gcc/arm-none-eabi/14.2.1/thumb/v7e-m+fp/hard/crti.o
_free_r                                           c:/Program Files/ARMtoolchain/bin/../lib/gcc/arm-none-eabi/14.2.1/thumb/v7e-m+fp/hard\libc_nano.a(libc_a-freer.o)
                                                  c:/Program Files/ARMtoolchain/bin/../lib/gcc/arm-none-eabi/14.2.1/thumb/v7e-m+fp/hard\libc_nano.a(libc_a-reallocr.o)
                                                  c:/Program Files/ARMtoolchain/bin/../lib/gcc/arm-none-eabi/14.2.1/thumb/v7e-m+fp/hard\libc_nano.a(libc_a-fvwrite.o)
                                                  c:/Program Files/ARMtoolchain/bin/../lib/gcc/arm-none-eabi/14.2.1/thumb/v7e-m+fp/hard\libc_nano.a(libc_a-fflush.o)
                                                  c:/Program Files/ARMtoolchain/bin/../lib/gcc/arm-none-eabi/14.2.1/thumb/v7e-m+fp/hard\libc_nano.a(libc_a-reent.o)
                                                  c:/Program Files/ARMtoolchain/bin/../lib/gcc/arm-none-eabi/14.2.1/thumb/v7e-m+fp/hard\libc_nano.a(libc_a-wsetup.o)
_fstat                                            c:/Program Files/ARMtoolchain/bin/../lib/gcc/arm-none-eabi/14.2.1/thumb/v7e-m+fp/hard\libnosys.a(fstat.o)
                                                  c:/Program Files/ARMtoolchain/bin/../lib/gcc/arm-none-eabi/14.2.1/thumb/v7e-m+fp/hard\libc_nano.a(libc_a-fstatr.o)
_fstat_r                                          c:/Program Files/ARMtoolchain/bin/../lib/gcc/arm-none-eabi/14.2.1/thumb/v7e-m+fp/hard\libc_nano.a(libc_a-fstatr.o)
                                                  c:/Program Files/ARMtoolchain/bin/../lib/gcc/arm-none-eabi/14.2.1/thumb/v7e-m+fp/hard\libc_nano.a(libc_a-makebuf.o)
_fwalk_sglue                                      c:/Program Files/ARMtoolchain/bin/../lib/gcc/arm-none-eabi/14.2.1/thumb/v7e-m+fp/hard\libc_nano.a(libc_a-fwalk.o)
                                                  c:/Program Files/ARMtoolchain/bin/../lib/gcc/arm-none-eabi/14.2.1/thumb/v7e-m+fp/hard\libc_nano.a(libc_a-fflush.o)
                                                  c:/Program Files/ARMtoolchain/bin/../lib/gcc/arm-none-eabi/14.2.1/thumb/v7e-m+fp/hard\libc_nano.a(libc_a-findfp.o)
_impure_data                                      c:/Program Files/ARMtoolchain/bin/../lib/gcc/arm-none-eabi/14.2.1/thumb/v7e-m+fp/hard\libc_nano.a(libc_a-impure.o)
                                                  c:/Program Files/ARMtoolchain/bin/../lib/gcc/arm-none-eabi/14.2.1/thumb/v7e-m+fp/hard\libc_nano.a(libc_a-fflush.o)
                                                  c:/Program Files/ARMtoolchain/bin/../lib/gcc/arm-none-eabi/14.2.1/thumb/v7e-m+fp/hard\libc_nano.a(libc_a-findfp.o)
_impure_ptr                                       c:/Program Files/ARMtoolchain/bin/../lib/gcc/arm-none-eabi/14.2.1/thumb/v7e-m+fp/hard\libc_nano.a(libc_a-impure.o)
                                                  c:/Program Files/ARMtoolchain/bin/../lib/gcc/arm-none-eabi/14.2.1/thumb/v7e-m+fp/hard\libc_nano.a(libc_a-errno.o)
                                                  c:/Program Files/ARMtoolchain/bin/../lib/gcc/arm-none-eabi/14.2.1/thumb/v7e-m+fp/hard\libc_nano.a(libc_a-fflush.o)
                                                  c:/Program Files/ARMtoolchain/bin/../lib/gcc/arm-none-eabi/14.2.1/thumb/v7e-m+fp/hard\libc_nano.a(libc_a-nano-vfprintf.o)
                                                  c:/Program Files/ARMtoolchain/bin/../lib/gcc/arm-none-eabi/14.2.1/thumb/v7e-m+fp/hard\libc_nano.a(libc_a-reent.o)
                                                  c:/Program Files/ARMtoolchain/bin/../lib/gcc/arm-none-eabi/14.2.1/thumb/v7e-m+fp/hard\libc_nano.a(libc_a-wsetup.o)
                                                  c:/Program Files/ARMtoolchain/bin/../lib/gcc/arm-none-eabi/14.2.1/thumb/v7e-m+fp/hard\libc_nano.a(libc_a-wbuf.o)
                                                  c:/Program Files/ARMtoolchain/bin/../lib/gcc/arm-none-eabi/14.2.1/thumb/v7e-m+fp/hard\libc_nano.a(libc_a-puts.o)
                                                  c:/Program Files/ARMtoolchain/bin/../lib/gcc/arm-none-eabi/14.2.1/thumb/v7e-m+fp/hard\libc_nano.a(libc_a-printf.o)
                                                  build/tasks.o
_init                                             c:/Program Files/ARMtoolchain/bin/../lib/gcc/arm-none-eabi/14.2.1/thumb/v7e-m+fp/hard/crti.o
                                                  c:/Program Files/ARMtoolchain/bin/../lib/gcc/arm-none-eabi/14.2.1/thumb/v7e-m+fp/hard\libc_nano.a(libc_a-init.o)
_iprintf_r                                        c:/Program Files/ARMtoolchain/bin/../lib/gcc/arm-none-eabi/14.2.1/thumb/v7e-m+fp/hard\libc_nano.a(libc_a-printf.o)
_isatty                                           c:/Program Files/ARMtoolchain/bin/../lib/gcc/arm-none-eabi/14.2.1/thumb/v7e-m+fp/hard\libnosys.a(isatty.o)
                                                  c:/Program Files/ARMtoolchain/bin/../lib/gcc/arm-none-eabi/14.2.1/thumb/v7e-m+fp/hard\libc_nano.a(libc_a-isattyr.o)
_isatty_r                                         c:/Program Files/ARMtoolchain/bin/../lib/gcc/arm-none-eabi/14.2.1/thumb/v7e-m+fp/hard\libc_nano.a(libc_a-isattyr.o)
                                                  c:/Program Files/ARMtoolchain/bin/../lib/gcc/arm-none-eabi/14.2.1/thumb/v7e-m+fp/hard\libc_nano.a(libc_a-makebuf.o)
_lseek                                            c:/Program Files/ARMtoolchain/bin/../lib/gcc/arm-none-eabi/14.2.1/thumb/v7e-m+fp/hard\libnosys.a(lseek.o)
                                                  c:/Program Files/ARMtoolchain/bin/../lib/gcc/arm-none-eabi/14.2.1/thumb/v7e-m+fp/hard\libc_nano.a(libc_a-lseekr.o)
_lseek_r                                          c:/Program Files/ARMtoolchain/bin/../lib/gcc/arm-none-eabi/14.2.1/thumb/v7e-m+fp/hard\libc_nano.a(libc_a-lseekr.o)
                                                  c:/Program Files/ARMtoolchain/bin/../lib/gcc/arm-none-eabi/14.2.1/thumb/v7e-m+fp/hard\libc_nano.a(libc_a-stdio.o)
_mainCRTStartup                                   c:/Program Files/ARMtoolchain/bin/../lib/gcc/arm-none-eabi/14.2.1/thumb/v7e-m+fp/hard/crt0.o
_malloc_r                                         c:/Program Files/ARMtoolchain/bin/../lib/gcc/arm-none-eabi/14.2.1/thumb/v7e-m+fp/hard\libc_nano.a(libc_a-mallocr.o)
                                                  c:/Program Files/ARMtoolchain/bin/../lib/gcc/arm-none-eabi/14.2.1/thumb/v7e-m+fp/hard\libc_nano.a(libc_a-reallocr.o)
                                                  c:/Program Files/ARMtoolchain/bin/../lib/gcc/arm-none-eabi/14.2.1/thumb/v7e-m+fp/hard\libc_nano.a(libc_a-makebuf.o)
                                                  c:/Program Files/ARMtoolchain/bin/../lib/gcc/arm-none-eabi/14.2.1/thumb/v7e-m+fp/hard\libc_nano.a(libc_a-fvwrite.o)
                                                  c:/Program Files/ARMtoolchain/bin/../lib/gcc/arm-none-eabi/14.2.1/thumb/v7e-m+fp/hard\libc_nano.a(libc_a-findfp.o)
_malloc_usable_size_r                             c:/Program Files/ARMtoolchain/bin/../lib/gcc/arm-none-eabi/14.2.1/thumb/v7e-m+fp/hard\libc_nano.a(libc_a-msizer.o)
                                                  c:/Program Files/ARMtoolchain/bin/../lib/gcc/arm-none-eabi/14.2.1/thumb/v7e-m+fp/hard\libc_nano.a(libc_a-reallocr.o)
_printf_common                                    c:/Program Files/ARMtoolchain/bin/../lib/gcc/arm-none-eabi/14.2.1/thumb/v7e-m+fp/hard\libc_nano.a(libc_a-nano-vfprintf_i.o)
_printf_float                                     c:/Program Files/ARMtoolchain/bin/../lib/gcc/arm-none-eabi/14.2.1/thumb/v7e-m+fp/hard\libc_nano.a(libc_a-nano-vfprintf.o)
_printf_i                                         c:/Program Files/ARMtoolchain/bin/../lib/gcc/arm-none-eabi/14.2.1/thumb/v7e-m+fp/hard\libc_nano.a(libc_a-nano-vfprintf_i.o)
                                                  c:/Program Files/ARMtoolchain/bin/../lib/gcc/arm-none-eabi/14.2.1/thumb/v7e-m+fp/hard\libc_nano.a(libc_a-nano-vfprintf.o)
_printf_r                                         c:/Program Files/ARMtoolchain/bin/../lib/gcc/arm-none-eabi/14.2.1/thumb/v7e-m+fp/hard\libc_nano.a(libc_a-printf.o)
_puts_r                                           c:/Program Files/ARMtoolchain/bin/../lib/gcc/arm-none-eabi/14.2.1/thumb/v7e-m+fp/hard\libc_nano.a(libc_a-puts.o)
_read                                             c:/Program Files/ARMtoolchain/bin/../lib/gcc/arm-none-eabi/14.2.1/thumb/v7e-m+fp/hard\libnosys.a(read.o)
                                                  c:/Program Files/ARMtoolchain/bin/../lib/gcc/arm-none-eabi/14.2.1/thumb/v7e-m+fp/hard\libc_nano.a(libc_a-readr.o)
_read_r                                           c:/Program Files/ARMtoolchain/bin/../lib/gcc/arm-none-eabi/14.2.1/thumb/v7e-m+fp/hard\libc_nano.a(libc_a-readr.o)
                                                  c:/Program Files/ARMtoolchain/bin/../lib/gcc/arm-none-eabi/14.2.1/thumb/v7e-m+fp/hard\libc_nano.a(libc_a-stdio.o)
_realloc_r                                        c:/Program Files/ARMtoolchain/bin/../lib/gcc/arm-none-eabi/14.2.1/thumb/v7e-m+fp/hard\libc_nano.a(libc_a-reallocr.o)
                                                  c:/Program Files/ARMtoolchain/bin/../lib/gcc/arm-none-eabi/14.2.1/thumb/v7e-m+fp/hard\libc_nano.a(libc_a-fvwrite.o)
_reclaim_reent                                    c:/Program Files/ARMtoolchain/bin/../lib/gcc/arm-none-eabi/14.2.1/thumb/v7e-m+fp/hard\libc_nano.a(libc_a-reent.o)
                                                  build/tasks.o
_sbrk                                             c:/Program Files/ARMtoolchain/bin/../lib/gcc/arm-none-eabi/14.2.1/thumb/v7e-m+fp/hard\libnosys.a(sbrk.o)
                                                  c:/Program Files/ARMtoolchain/bin/../lib/gcc/arm-none-eabi/14.2.1/thumb/v7e-m+fp/hard\libc_nano.a(libc_a-sbrkr.o)
_sbrk_r                                           c:/Program Files/ARMtoolchain/bin/../lib/gcc/arm-none-eabi/14.2.1/thumb/v7e-m+fp/hard\libc_nano.a(libc_a-sbrkr.o)
                                                  c:/Program Files/ARMtoolchain/bin/../lib/gcc/arm-none-eabi/14.2.1/thumb/v7e-m+fp/hard\libc_nano.a(libc_a-mallocr.o)
_sbss                                             build/startup_stm32f401xc.o
_sdata                                            build/startup_stm32f401xc.o
_sidata                                           build/startup_stm32f401xc.o
_stack_init                                       c:/Program Files/ARMtoolchain/bin/../lib/gcc/arm-none-eabi/14.2.1/thumb/v7e-m+fp/hard/crt0.o
_start                                            c:/Program Files/ARMtoolchain/bin/../lib/gcc/arm-none-eabi/14.2.1/thumb/v7e-m+fp/hard/crt0.o
_vfiprintf_r                                      c:/Program Files/ARMtoolchain/bin/../lib/gcc/arm-none-eabi/14.2.1/thumb/v7e-m+fp/hard\libc_nano.a(libc_a-nano-vfprintf.o)
_vfprintf_r                                       c:/Program Files/ARMtoolchain/bin/../lib/gcc/arm-none-eabi/14.2.1/thumb/v7e-m+fp/hard\libc_nano.a(libc_a-nano-vfprintf.o)
                                                  c:/Program Files/ARMtoolchain/bin/../lib/gcc/arm-none-eabi/14.2.1/thumb/v7e-m+fp/hard\libc_nano.a(libc_a-printf.o)
_write                                            build/main.o
                                                  c:/Program Files/ARMtoolchain/bin/../lib/gcc/arm-none-eabi/14.2.1/thumb/v7e-m+fp/hard\libc_nano.a(libc_a-writer.o)
_write_r                                          c:/Program Files/ARMtoolchain/bin/../lib/gcc/arm-none-eabi/14.2.1/thumb/v7e-m+fp/hard\libc_nano.a(libc_a-writer.o)
                                                  c:/Program Files/ARMtoolchain/bin/../lib/gcc/arm-none-eabi/14.2.1/thumb/v7e-m+fp/hard\libc_nano.a(libc_a-stdio.o)
atexit                                            c:/Program Files/ARMtoolchain/bin/../lib/gcc/arm-none-eabi/14.2.1/thumb/v7e-m+fp/hard/crt0.o
calc_dac_value                                    build/thermal_control.o
calc_temp                                         build/thermal_control.o
                                                  build/main.o
eTaskGetState                                     build/tasks.o
                                                  build/cmsis_os2.o
end                                               c:/Program Files/ARMtoolchain/bin/../lib/gcc/arm-none-eabi/14.2.1/thumb/v7e-m+fp/hard\libnosys.a(sbrk.o)
errno                                             c:/Program Files/ARMtoolchain/bin/../lib/gcc/arm-none-eabi/14.2.1/thumb/v7e-m+fp/hard\libc_nano.a(libc_a-reent.o)
                                                  c:/Program Files/ARMtoolchain/bin/../lib/gcc/arm-none-eabi/14.2.1/thumb/v7e-m+fp/hard\libnosys.a(read.o)
                                                  c:/Program Files/ARMtoolchain/bin/../lib/gcc/arm-none-eabi/14.2.1/thumb/v7e-m+fp/hard\libnosys.a(lseek.o)
                                                  c:/Program Files/ARMtoolchain/bin/../lib/gcc/arm-none-eabi/14.2.1/thumb/v7e-m+fp/hard\libnosys.a(isatty.o)
                                                  c:/Program Files/ARMtoolchain/bin/../lib/gcc/arm-none-eabi/14.2.1/thumb/v7e-m+fp/hard\libnosys.a(fstat.o)
                                                  c:/Program Files/ARMtoolchain/bin/../lib/gcc/arm-none-eabi/14.2.1/thumb/v7e-m+fp/hard\libnosys.a(close.o)
                                                  c:/Program Files/ARMtoolchain/bin/../lib/gcc/arm-none-eabi/14.2.1/thumb/v7e-m+fp/hard\libc_nano.a(libc_a-sbrkr.o)
                                                  c:/Program Files/ARMtoolchain/bin/../lib/gcc/arm-none-eabi/14.2.1/thumb/v7e-m+fp/hard\libc_nano.a(libc_a-isattyr.o)
                                                  c:/Program Files/ARMtoolchain/bin/../lib/gcc/arm-none-eabi/14.2.1/thumb/v7e-m+fp/hard\libc_nano.a(libc_a-fstatr.o)
                                                  c:/Program Files/ARMtoolchain/bin/../lib/gcc/arm-none-eabi/14.2.1/thumb/v7e-m+fp/hard\libc_nano.a(libc_a-writer.o)
                                                  c:/Program Files/ARMtoolchain/bin/../lib/gcc/arm-none-eabi/14.2.1/thumb/v7e-m+fp/hard\libc_nano.a(libc_a-readr.o)
                                                  c:/Program Files/ARMtoolchain/bin/../lib/gcc/arm-none-eabi/14.2.1/thumb/v7e-m+fp/hard\libc_nano.a(libc_a-lseekr.o)
                                                  c:/Program Files/ARMtoolchain/bin/../lib/gcc/arm-none-eabi/14.2.1/thumb/v7e-m+fp/hard\libc_nano.a(libc_a-closer.o)
exit                                              c:/Program Files/ARMtoolchain/bin/../lib/gcc/arm-none-eabi/14.2.1/thumb/v7e-m+fp/hard\libc_nano.a(libc_a-exit.o)
                                                  c:/Program Files/ARMtoolchain/bin/../lib/gcc/arm-none-eabi/14.2.1/thumb/v7e-m+fp/hard/crt0.o
fflush                                            c:/Program Files/ARMtoolchain/bin/../lib/gcc/arm-none-eabi/14.2.1/thumb/v7e-m+fp/hard\libc_nano.a(libc_a-fflush.o)
g_pfnVectors                                      build/startup_stm32f401xc.o
hUsbDeviceFS                                      build/usb_device.o
                                                  build/usbd_cdc_if.o
                                                  build/main.o
hadc1                                             build/main.o
hardware_init_hook                                c:/Program Files/ARMtoolchain/bin/../lib/gcc/arm-none-eabi/14.2.1/thumb/v7e-m+fp/hard/crt0.o
hi2c1                                             build/main.o
hpcd_USB_OTG_FS                                   build/usbd_conf.o
                                                  build/stm32f4xx_it.o
htim11                                            build/stm32f4xx_hal_timebase_tim.o
                                                  build/stm32f4xx_it.o
htim2                                             build/main.o
iprintf                                           c:/Program Files/ARMtoolchain/bin/../lib/gcc/arm-none-eabi/14.2.1/thumb/v7e-m+fp/hard\libc_nano.a(libc_a-printf.o)
log                                               c:/Program Files/ARMtoolchain/bin/../lib/gcc/arm-none-eabi/14.2.1/thumb/v7e-m+fp/hard\libm.a(libm_a-w_log.o)
                                                  build/thermal_control.o
logR2                                             build/thermal_control.o
main                                              build/main.o
                                                  build/startup_stm32f401xc.o
                                                  c:/Program Files/ARMtoolchain/bin/../lib/gcc/arm-none-eabi/14.2.1/thumb/v7e-m+fp/hard/crt0.o
memchr                                            c:/Program Files/ARMtoolchain/bin/../lib/gcc/arm-none-eabi/14.2.1/thumb/v7e-m+fp/hard\libc_nano.a(libc_a-memchr.o)
                                                  c:/Program Files/ARMtoolchain/bin/../lib/gcc/arm-none-eabi/14.2.1/thumb/v7e-m+fp/hard\libc_nano.a(libc_a-fvwrite.o)
                                                  c:/Program Files/ARMtoolchain/bin/../lib/gcc/arm-none-eabi/14.2.1/thumb/v7e-m+fp/hard\libc_nano.a(libc_a-nano-vfprintf_i.o)
                                                  c:/Program Files/ARMtoolchain/bin/../lib/gcc/arm-none-eabi/14.2.1/thumb/v7e-m+fp/hard\libc_nano.a(libc_a-nano-vfprintf.o)
memcpy                                            c:/Program Files/ARMtoolchain/bin/../lib/gcc/arm-none-eabi/14.2.1/thumb/v7e-m+fp/hard\libc_nano.a(libc_a-memcpy-stub.o)
                                                  c:/Program Files/ARMtoolchain/bin/../lib/gcc/arm-none-eabi/14.2.1/thumb/v7e-m+fp/hard\libc_nano.a(libc_a-reallocr.o)
                                                  c:/Program Files/ARMtoolchain/bin/../lib/gcc/arm-none-eabi/14.2.1/thumb/v7e-m+fp/hard\libc_nano.a(libc_a-fvwrite.o)
                                                  build/cmsis_os2.o
                                                  build/stream_buffer.o
                                                  build/queue.o
memmove                                           c:/Program Files/ARMtoolchain/bin/../lib/gcc/arm-none-eabi/14.2.1/thumb/v7e-m+fp/hard\libc_nano.a(libc_a-memmove.o)
                                                  c:/Program Files/ARMtoolchain/bin/../lib/gcc/arm-none-eabi/14.2.1/thumb/v7e-m+fp/hard\libc_nano.a(libc_a-fvwrite.o)
memset                                            c:/Program Files/ARMtoolchain/bin/../lib/gcc/arm-none-eabi/14.2.1/thumb/v7e-m+fp/hard\libc_nano.a(libc_a-memset.o)
                                                  c:/Program Files/ARMtoolchain/bin/../lib/gcc/arm-none-eabi/14.2.1/thumb/v7e-m+fp/hard\libc_nano.a(libc_a-findfp.o)
                                                  build/usbd_cdc.o
                                                  build/tasks.o
                                                  build/stream_buffer.o
                                                  build/main.o
                                                  c:/Program Files/ARMtoolchain/bin/../lib/gcc/arm-none-eabi/14.2.1/thumb/v7e-m+fp/hard/crt0.o
nan                                               c:/Program Files/ARMtoolchain/bin/../lib/gcc/arm-none-eabi/14.2.1/thumb/v7e-m+fp/hard\libm.a(libm_a-s_nan.o)
                                                  c:/Program Files/ARMtoolchain/bin/../lib/gcc/arm-none-eabi/14.2.1/thumb/v7e-m+fp/hard\libm.a(libm_a-w_log.o)
osDelay                                           build/cmsis_os2.o
                                                  build/main.o
osDelayUntil                                      build/cmsis_os2.o
osEventFlagsClear                                 build/cmsis_os2.o
osEventFlagsDelete                                build/cmsis_os2.o
osEventFlagsGet                                   build/cmsis_os2.o
osEventFlagsNew                                   build/cmsis_os2.o
osEventFlagsSet                                   build/cmsis_os2.o
osEventFlagsWait                                  build/cmsis_os2.o
osKernelGetInfo                                   build/cmsis_os2.o
osKernelGetState                                  build/cmsis_os2.o
osKernelGetSysTimerCount                          build/cmsis_os2.o
osKernelGetSysTimerFreq                           build/cmsis_os2.o
osKernelGetTickCount                              build/cmsis_os2.o
osKernelGetTickFreq                               build/cmsis_os2.o
osKernelInitialize                                build/cmsis_os2.o
                                                  build/main.o
osKernelLock                                      build/cmsis_os2.o
osKernelRestoreLock                               build/cmsis_os2.o
osKernelStart                                     build/cmsis_os2.o
                                                  build/main.o
osKernelUnlock                                    build/cmsis_os2.o
osMemoryPoolAlloc                                 build/cmsis_os2.o
osMemoryPoolDelete                                build/cmsis_os2.o
osMemoryPoolFree                                  build/cmsis_os2.o
osMemoryPoolGetBlockSize                          build/cmsis_os2.o
osMemoryPoolGetCapacity                           build/cmsis_os2.o
osMemoryPoolGetCount                              build/cmsis_os2.o
osMemoryPoolGetName                               build/cmsis_os2.o
osMemoryPoolGetSpace                              build/cmsis_os2.o
osMemoryPoolNew                                   build/cmsis_os2.o
osMessageQueueDelete                              build/cmsis_os2.o
osMessageQueueGet                                 build/cmsis_os2.o
osMessageQueueGetCapacity                         build/cmsis_os2.o
osMessageQueueGetCount                            build/cmsis_os2.o
osMessageQueueGetMsgSize                          build/cmsis_os2.o
osMessageQueueGetSpace                            build/cmsis_os2.o
osMessageQueueNew                                 build/cmsis_os2.o
osMessageQueuePut                                 build/cmsis_os2.o
osMessageQueueReset                               build/cmsis_os2.o
osMutexAcquire                                    build/cmsis_os2.o
osMutexDelete                                     build/cmsis_os2.o
osMutexGetOwner                                   build/cmsis_os2.o
osMutexNew                                        build/cmsis_os2.o
osMutexRelease                                    build/cmsis_os2.o
osSemaphoreAcquire                                build/cmsis_os2.o
osSemaphoreDelete                                 build/cmsis_os2.o
osSemaphoreGetCount                               build/cmsis_os2.o
osSemaphoreNew                                    build/cmsis_os2.o
osSemaphoreRelease                                build/cmsis_os2.o
osThreadEnumerate                                 build/cmsis_os2.o
osThreadExit                                      build/cmsis_os2.o
osThreadFlagsClear                                build/cmsis_os2.o
osThreadFlagsGet                                  build/cmsis_os2.o
osThreadFlagsSet                                  build/cmsis_os2.o
osThreadFlagsWait                                 build/cmsis_os2.o
osThreadGetCount                                  build/cmsis_os2.o
osThreadGetId                                     build/cmsis_os2.o
osThreadGetName                                   build/cmsis_os2.o
osThreadGetPriority                               build/cmsis_os2.o
osThreadGetStackSpace                             build/cmsis_os2.o
osThreadGetState                                  build/cmsis_os2.o
osThreadNew                                       build/cmsis_os2.o
                                                  build/main.o
osThreadResume                                    build/cmsis_os2.o
osThreadSetPriority                               build/cmsis_os2.o
osThreadSuspend                                   build/cmsis_os2.o
osThreadTerminate                                 build/cmsis_os2.o
osThreadYield                                     build/cmsis_os2.o
osTimerDelete                                     build/cmsis_os2.o
osTimerGetName                                    build/cmsis_os2.o
osTimerIsRunning                                  build/cmsis_os2.o
osTimerNew                                        build/cmsis_os2.o
osTimerStart                                      build/cmsis_os2.o
osTimerStop                                       build/cmsis_os2.o
out                                               build/thermal_control.o
pFlash                                            build/stm32f4xx_hal_flash.o
                                                  build/stm32f4xx_hal_flash_ex.o
pcQueueGetName                                    build/queue.o
pcTaskGetName                                     build/tasks.o
                                                  build/cmsis_os2.o
pcTimerGetName                                    build/timers.o
                                                  build/cmsis_os2.o
printf                                            c:/Program Files/ARMtoolchain/bin/../lib/gcc/arm-none-eabi/14.2.1/thumb/v7e-m+fp/hard\libc_nano.a(libc_a-printf.o)
                                                  build/main.o
puts                                              c:/Program Files/ARMtoolchain/bin/../lib/gcc/arm-none-eabi/14.2.1/thumb/v7e-m+fp/hard\libc_nano.a(libc_a-puts.o)
                                                  build/main.o
pvPortMalloc                                      build/heap_4.o
                                                  build/cmsis_os2.o
                                                  build/timers.o
                                                  build/tasks.o
                                                  build/stream_buffer.o
                                                  build/queue.o
                                                  build/event_groups.o
pvTaskIncrementMutexHeldCount                     build/tasks.o
                                                  build/queue.o
pvTimerGetTimerID                                 build/timers.o
                                                  build/cmsis_os2.o
pxCurrentTCB                                      build/tasks.o
                                                  build/port.o
pxPortInitialiseStack                             build/port.o
                                                  build/tasks.o
round                                             c:/Program Files/ARMtoolchain/bin/../lib/gcc/arm-none-eabi/14.2.1/thumb/v7e-m+fp/hard\libm.a(libm_a-s_round.o)
                                                  build/thermal_control.o
round_to_two_decimal_places                       build/thermal_control.o
software_init_hook                                c:/Program Files/ARMtoolchain/bin/../lib/gcc/arm-none-eabi/14.2.1/thumb/v7e-m+fp/hard/crt0.o
ucQueueGetQueueType                               build/queue.o
ucStreamBufferGetStreamBufferType                 build/stream_buffer.o
ulTaskNotifyTake                                  build/tasks.o
ulTaskNotifyValueClear                            build/tasks.o
uwTick                                            build/stm32f4xx_hal.o
uwTickFreq                                        build/stm32f4xx_hal.o
uwTickPrio                                        build/stm32f4xx_hal.o
                                                  build/stm32f4xx_hal_rcc_ex.o
                                                  build/stm32f4xx_hal_rcc.o
                                                  build/stm32f4xx_hal_timebase_tim.o
uxEventGroupGetNumber                             build/event_groups.o
uxListRemove                                      build/list.o
                                                  build/timers.o
                                                  build/tasks.o
uxQueueGetQueueNumber                             build/queue.o
uxQueueMessagesWaiting                            build/queue.o
                                                  build/cmsis_os2.o
uxQueueMessagesWaitingFromISR                     build/queue.o
                                                  build/cmsis_os2.o
uxQueueSpacesAvailable                            build/queue.o
                                                  build/cmsis_os2.o
uxStreamBufferGetStreamBufferNumber               build/stream_buffer.o
uxTaskGetNumberOfTasks                            build/tasks.o
                                                  build/cmsis_os2.o
uxTaskGetStackHighWaterMark                       build/tasks.o
                                                  build/cmsis_os2.o
uxTaskGetSystemState                              build/tasks.o
                                                  build/cmsis_os2.o
uxTaskGetTaskNumber                               build/tasks.o
uxTaskPriorityGet                                 build/tasks.o
                                                  build/cmsis_os2.o
uxTaskPriorityGetFromISR                          build/tasks.o
uxTaskResetEventItemValue                         build/tasks.o
                                                  build/event_groups.o
uxTimerGetReloadMode                              build/timers.o
uxTimerGetTimerNumber                             build/timers.o
vApplicationGetIdleTaskMemory                     build/cmsis_os2.o
                                                  build/tasks.o
vApplicationGetTimerTaskMemory                    build/cmsis_os2.o
                                                  build/timers.o
vEventGroupClearBitsCallback                      build/event_groups.o
vEventGroupDelete                                 build/event_groups.o
                                                  build/cmsis_os2.o
vEventGroupSetBitsCallback                        build/event_groups.o
vEventGroupSetNumber                              build/event_groups.o
vListInitialise                                   build/list.o
                                                  build/timers.o
                                                  build/tasks.o
                                                  build/queue.o
                                                  build/event_groups.o
vListInitialiseItem                               build/list.o
                                                  build/timers.o
                                                  build/tasks.o
vListInsert                                       build/list.o
                                                  build/timers.o
                                                  build/tasks.o
vListInsertEnd                                    build/list.o
                                                  build/tasks.o
vPortEndScheduler                                 build/port.o
                                                  build/tasks.o
vPortEnterCritical                                build/port.o
                                                  build/heap_4.o
                                                  build/cmsis_os2.o
                                                  build/timers.o
                                                  build/tasks.o
                                                  build/stream_buffer.o
                                                  build/queue.o
                                                  build/event_groups.o
vPortExitCritical                                 build/port.o
                                                  build/heap_4.o
                                                  build/cmsis_os2.o
                                                  build/timers.o
                                                  build/tasks.o
                                                  build/stream_buffer.o
                                                  build/queue.o
                                                  build/event_groups.o
vPortFree                                         build/heap_4.o
                                                  build/cmsis_os2.o
                                                  build/timers.o
                                                  build/tasks.o
                                                  build/stream_buffer.o
                                                  build/queue.o
                                                  build/event_groups.o
vPortGetHeapStats                                 build/heap_4.o
vPortInitialiseBlocks                             build/heap_4.o
vPortSetupTimerInterrupt                          build/port.o
vPortValidateInterruptPriority                    build/port.o
                                                  build/tasks.o
                                                  build/queue.o
vQueueAddToRegistry                               build/queue.o
                                                  build/cmsis_os2.o
                                                  build/timers.o
vQueueDelete                                      build/queue.o
                                                  build/cmsis_os2.o
vQueueSetQueueNumber                              build/queue.o
vQueueUnregisterQueue                             build/queue.o
                                                  build/cmsis_os2.o
vQueueWaitForMessageRestricted                    build/queue.o
                                                  build/timers.o
vStreamBufferDelete                               build/stream_buffer.o
vStreamBufferSetStreamBufferNumber                build/stream_buffer.o
vTaskDelay                                        build/tasks.o
                                                  build/cmsis_os2.o
vTaskDelayUntil                                   build/tasks.o
                                                  build/cmsis_os2.o
vTaskDelete                                       build/tasks.o
                                                  build/cmsis_os2.o
vTaskEndScheduler                                 build/tasks.o
vTaskGetInfo                                      build/tasks.o
vTaskInternalSetTimeOutState                      build/tasks.o
                                                  build/queue.o
vTaskMissedYield                                  build/tasks.o
                                                  build/queue.o
vTaskNotifyGiveFromISR                            build/tasks.o
vTaskPlaceOnEventList                             build/tasks.o
                                                  build/queue.o
vTaskPlaceOnEventListRestricted                   build/tasks.o
                                                  build/queue.o
vTaskPlaceOnUnorderedEventList                    build/tasks.o
                                                  build/event_groups.o
vTaskPriorityDisinheritAfterTimeout               build/tasks.o
                                                  build/queue.o
vTaskPrioritySet                                  build/tasks.o
                                                  build/cmsis_os2.o
vTaskRemoveFromUnorderedEventList                 build/tasks.o
                                                  build/event_groups.o
vTaskResume                                       build/tasks.o
                                                  build/cmsis_os2.o
vTaskSetTaskNumber                                build/tasks.o
vTaskSetTimeOutState                              build/tasks.o
                                                  build/stream_buffer.o
vTaskStartScheduler                               build/tasks.o
                                                  build/cmsis_os2.o
vTaskSuspend                                      build/tasks.o
                                                  build/cmsis_os2.o
vTaskSuspendAll                                   build/tasks.o
                                                  build/heap_4.o
                                                  build/cmsis_os2.o
                                                  build/timers.o
                                                  build/stream_buffer.o
                                                  build/queue.o
                                                  build/event_groups.o
vTaskSwitchContext                                build/tasks.o
                                                  build/port.o
vTimerSetReloadMode                               build/timers.o
vTimerSetTimerID                                  build/timers.o
vTimerSetTimerNumber                              build/timers.o
vfiprintf                                         c:/Program Files/ARMtoolchain/bin/../lib/gcc/arm-none-eabi/14.2.1/thumb/v7e-m+fp/hard\libc_nano.a(libc_a-nano-vfprintf.o)
vfprintf                                          c:/Program Files/ARMtoolchain/bin/../lib/gcc/arm-none-eabi/14.2.1/thumb/v7e-m+fp/hard\libc_nano.a(libc_a-nano-vfprintf.o)
xEventGroupClearBits                              build/event_groups.o
                                                  build/cmsis_os2.o
xEventGroupClearBitsFromISR                       build/event_groups.o
                                                  build/cmsis_os2.o
xEventGroupCreate                                 build/event_groups.o
                                                  build/cmsis_os2.o
xEventGroupCreateStatic                           build/event_groups.o
                                                  build/cmsis_os2.o
xEventGroupGetBitsFromISR                         build/event_groups.o
                                                  build/cmsis_os2.o
xEventGroupSetBits                                build/event_groups.o
                                                  build/cmsis_os2.o
xEventGroupSetBitsFromISR                         build/event_groups.o
                                                  build/cmsis_os2.o
xEventGroupSync                                   build/event_groups.o
xEventGroupWaitBits                               build/event_groups.o
                                                  build/cmsis_os2.o
xPortGetFreeHeapSize                              build/heap_4.o
xPortGetMinimumEverFreeHeapSize                   build/heap_4.o
xPortStartScheduler                               build/port.o
                                                  build/tasks.o
xPortSysTickHandler                               build/port.o
                                                  build/cmsis_os2.o
xQueueCreateCountingSemaphore                     build/queue.o
                                                  build/cmsis_os2.o
xQueueCreateCountingSemaphoreStatic               build/queue.o
                                                  build/cmsis_os2.o
xQueueCreateMutex                                 build/queue.o
                                                  build/cmsis_os2.o
xQueueCreateMutexStatic                           build/queue.o
                                                  build/cmsis_os2.o
xQueueGenericCreate                               build/queue.o
                                                  build/cmsis_os2.o
xQueueGenericCreateStatic                         build/queue.o
                                                  build/cmsis_os2.o
                                                  build/timers.o
xQueueGenericReset                                build/queue.o
                                                  build/cmsis_os2.o
xQueueGenericSend                                 build/queue.o
                                                  build/cmsis_os2.o
                                                  build/timers.o
xQueueGenericSendFromISR                          build/queue.o
                                                  build/cmsis_os2.o
                                                  build/timers.o
xQueueGetMutexHolder                              build/queue.o
                                                  build/cmsis_os2.o
xQueueGetMutexHolderFromISR                       build/queue.o
xQueueGiveFromISR                                 build/queue.o
                                                  build/cmsis_os2.o
xQueueGiveMutexRecursive                          build/queue.o
                                                  build/cmsis_os2.o
xQueueIsQueueEmptyFromISR                         build/queue.o
xQueueIsQueueFullFromISR                          build/queue.o
xQueuePeek                                        build/queue.o
xQueuePeekFromISR                                 build/queue.o
xQueueReceive                                     build/queue.o
                                                  build/cmsis_os2.o
                                                  build/timers.o
xQueueReceiveFromISR                              build/queue.o
                                                  build/cmsis_os2.o
xQueueRegistry                                    build/queue.o
xQueueSemaphoreTake                               build/queue.o
                                                  build/cmsis_os2.o
xQueueTakeMutexRecursive                          build/queue.o
                                                  build/cmsis_os2.o
xStreamBufferBytesAvailable                       build/stream_buffer.o
xStreamBufferGenericCreate                        build/stream_buffer.o
xStreamBufferGenericCreateStatic                  build/stream_buffer.o
xStreamBufferIsEmpty                              build/stream_buffer.o
xStreamBufferIsFull                               build/stream_buffer.o
xStreamBufferNextMessageLengthBytes               build/stream_buffer.o
xStreamBufferReceive                              build/stream_buffer.o
xStreamBufferReceiveCompletedFromISR              build/stream_buffer.o
xStreamBufferReceiveFromISR                       build/stream_buffer.o
xStreamBufferReset                                build/stream_buffer.o
xStreamBufferSend                                 build/stream_buffer.o
xStreamBufferSendCompletedFromISR                 build/stream_buffer.o
xStreamBufferSendFromISR                          build/stream_buffer.o
xStreamBufferSetTriggerLevel                      build/stream_buffer.o
xStreamBufferSpacesAvailable                      build/stream_buffer.o
xTaskCatchUpTicks                                 build/tasks.o
xTaskCheckForTimeOut                              build/tasks.o
                                                  build/stream_buffer.o
                                                  build/queue.o
xTaskCreate                                       build/tasks.o
                                                  build/cmsis_os2.o
xTaskCreateStatic                                 build/tasks.o
                                                  build/cmsis_os2.o
                                                  build/timers.o
xTaskGenericNotify                                build/tasks.o
                                                  build/cmsis_os2.o
                                                  build/stream_buffer.o
xTaskGenericNotifyFromISR                         build/tasks.o
                                                  build/cmsis_os2.o
                                                  build/stream_buffer.o
xTaskGetCurrentTaskHandle                         build/tasks.o
                                                  build/cmsis_os2.o
                                                  build/stream_buffer.o
                                                  build/queue.o
xTaskGetSchedulerState                            build/tasks.o
                                                  build/cmsis_os2.o
                                                  build/timers.o
                                                  build/queue.o
                                                  build/event_groups.o
xTaskGetTickCount                                 build/tasks.o
                                                  build/cmsis_os2.o
                                                  build/timers.o
xTaskGetTickCountFromISR                          build/tasks.o
                                                  build/cmsis_os2.o
xTaskIncrementTick                                build/tasks.o
                                                  build/port.o
xTaskNotifyStateClear                             build/tasks.o
                                                  build/stream_buffer.o
xTaskNotifyWait                                   build/tasks.o
                                                  build/cmsis_os2.o
                                                  build/stream_buffer.o
xTaskPriorityDisinherit                           build/tasks.o
                                                  build/queue.o
xTaskPriorityInherit                              build/tasks.o
                                                  build/queue.o
xTaskRemoveFromEventList                          build/tasks.o
                                                  build/queue.o
xTaskResumeAll                                    build/tasks.o
                                                  build/heap_4.o
                                                  build/cmsis_os2.o
                                                  build/timers.o
                                                  build/stream_buffer.o
                                                  build/queue.o
                                                  build/event_groups.o
xTaskResumeFromISR                                build/tasks.o
xTimerCreate                                      build/timers.o
                                                  build/cmsis_os2.o
xTimerCreateStatic                                build/timers.o
                                                  build/cmsis_os2.o
xTimerCreateTimerTask                             build/timers.o
                                                  build/tasks.o
xTimerGenericCommand                              build/timers.o
                                                  build/cmsis_os2.o
xTimerGetExpiryTime                               build/timers.o
xTimerGetPeriod                                   build/timers.o
xTimerGetTimerDaemonTaskHandle                    build/timers.o
xTimerIsTimerActive                               build/timers.o
                                                  build/cmsis_os2.o
xTimerPendFunctionCall                            build/timers.o
xTimerPendFunctionCallFromISR                     build/timers.o
                                                  build/event_groups.o
