ARM GAS  C:\Users\oleku\AppData\Local\Temp\ccreWTWk.s 			page 1


   1              		.cpu cortex-m4
   2              		.arch armv7e-m
   3              		.fpu fpv4-sp-d16
   4              		.eabi_attribute 27, 1
   5              		.eabi_attribute 28, 1
   6              		.eabi_attribute 20, 1
   7              		.eabi_attribute 21, 1
   8              		.eabi_attribute 23, 3
   9              		.eabi_attribute 24, 1
  10              		.eabi_attribute 25, 1
  11              		.eabi_attribute 26, 1
  12              		.eabi_attribute 30, 1
  13              		.eabi_attribute 34, 1
  14              		.eabi_attribute 18, 4
  15              		.file	"usbd_conf.c"
  16              		.text
  17              	.Ltext0:
  18              		.cfi_sections	.debug_frame
  19              		.file 1 "USB_DEVICE/Target/usbd_conf.c"
  20              		.section	.text.HAL_PCD_MspInit,"ax",%progbits
  21              		.align	1
  22              		.global	HAL_PCD_MspInit
  23              		.syntax unified
  24              		.thumb
  25              		.thumb_func
  27              	HAL_PCD_MspInit:
  28              	.LVL0:
  29              	.LFB228:
   1:USB_DEVICE/Target/usbd_conf.c **** /* USER CODE BEGIN Header */
   2:USB_DEVICE/Target/usbd_conf.c **** /**
   3:USB_DEVICE/Target/usbd_conf.c ****   ******************************************************************************
   4:USB_DEVICE/Target/usbd_conf.c ****   * @file           : Target/usbd_conf.c
   5:USB_DEVICE/Target/usbd_conf.c ****   * @version        : v1.0_Cube
   6:USB_DEVICE/Target/usbd_conf.c ****   * @brief          : This file implements the board support package for the USB device library
   7:USB_DEVICE/Target/usbd_conf.c ****   ******************************************************************************
   8:USB_DEVICE/Target/usbd_conf.c ****   * @attention
   9:USB_DEVICE/Target/usbd_conf.c ****   *
  10:USB_DEVICE/Target/usbd_conf.c ****   * Copyright (c) 2023 STMicroelectronics.
  11:USB_DEVICE/Target/usbd_conf.c ****   * All rights reserved.
  12:USB_DEVICE/Target/usbd_conf.c ****   *
  13:USB_DEVICE/Target/usbd_conf.c ****   * This software is licensed under terms that can be found in the LICENSE file
  14:USB_DEVICE/Target/usbd_conf.c ****   * in the root directory of this software component.
  15:USB_DEVICE/Target/usbd_conf.c ****   * If no LICENSE file comes with this software, it is provided AS-IS.
  16:USB_DEVICE/Target/usbd_conf.c ****   *
  17:USB_DEVICE/Target/usbd_conf.c ****   ******************************************************************************
  18:USB_DEVICE/Target/usbd_conf.c ****   */
  19:USB_DEVICE/Target/usbd_conf.c **** /* USER CODE END Header */
  20:USB_DEVICE/Target/usbd_conf.c **** 
  21:USB_DEVICE/Target/usbd_conf.c **** /* Includes ------------------------------------------------------------------*/
  22:USB_DEVICE/Target/usbd_conf.c **** #include "stm32f4xx.h"
  23:USB_DEVICE/Target/usbd_conf.c **** #include "stm32f4xx_hal.h"
  24:USB_DEVICE/Target/usbd_conf.c **** #include "usbd_def.h"
  25:USB_DEVICE/Target/usbd_conf.c **** #include "usbd_core.h"
  26:USB_DEVICE/Target/usbd_conf.c **** 
  27:USB_DEVICE/Target/usbd_conf.c **** #include "usbd_cdc.h"
  28:USB_DEVICE/Target/usbd_conf.c **** 
  29:USB_DEVICE/Target/usbd_conf.c **** /* USER CODE BEGIN Includes */
ARM GAS  C:\Users\oleku\AppData\Local\Temp\ccreWTWk.s 			page 2


  30:USB_DEVICE/Target/usbd_conf.c **** 
  31:USB_DEVICE/Target/usbd_conf.c **** /* USER CODE END Includes */
  32:USB_DEVICE/Target/usbd_conf.c **** 
  33:USB_DEVICE/Target/usbd_conf.c **** /* Private typedef -----------------------------------------------------------*/
  34:USB_DEVICE/Target/usbd_conf.c **** /* Private define ------------------------------------------------------------*/
  35:USB_DEVICE/Target/usbd_conf.c **** /* Private macro -------------------------------------------------------------*/
  36:USB_DEVICE/Target/usbd_conf.c **** 
  37:USB_DEVICE/Target/usbd_conf.c **** /* USER CODE BEGIN PV */
  38:USB_DEVICE/Target/usbd_conf.c **** /* Private variables ---------------------------------------------------------*/
  39:USB_DEVICE/Target/usbd_conf.c **** 
  40:USB_DEVICE/Target/usbd_conf.c **** /* USER CODE END PV */
  41:USB_DEVICE/Target/usbd_conf.c **** 
  42:USB_DEVICE/Target/usbd_conf.c **** PCD_HandleTypeDef hpcd_USB_OTG_FS;
  43:USB_DEVICE/Target/usbd_conf.c **** void Error_Handler(void);
  44:USB_DEVICE/Target/usbd_conf.c **** 
  45:USB_DEVICE/Target/usbd_conf.c **** /* External functions --------------------------------------------------------*/
  46:USB_DEVICE/Target/usbd_conf.c **** void SystemClock_Config(void);
  47:USB_DEVICE/Target/usbd_conf.c **** 
  48:USB_DEVICE/Target/usbd_conf.c **** /* USER CODE BEGIN 0 */
  49:USB_DEVICE/Target/usbd_conf.c **** 
  50:USB_DEVICE/Target/usbd_conf.c **** /* USER CODE END 0 */
  51:USB_DEVICE/Target/usbd_conf.c **** 
  52:USB_DEVICE/Target/usbd_conf.c **** /* USER CODE BEGIN PFP */
  53:USB_DEVICE/Target/usbd_conf.c **** /* Private function prototypes -----------------------------------------------*/
  54:USB_DEVICE/Target/usbd_conf.c **** USBD_StatusTypeDef USBD_Get_USB_Status(HAL_StatusTypeDef hal_status);
  55:USB_DEVICE/Target/usbd_conf.c **** 
  56:USB_DEVICE/Target/usbd_conf.c **** /* USER CODE END PFP */
  57:USB_DEVICE/Target/usbd_conf.c **** 
  58:USB_DEVICE/Target/usbd_conf.c **** /* Private functions ---------------------------------------------------------*/
  59:USB_DEVICE/Target/usbd_conf.c **** 
  60:USB_DEVICE/Target/usbd_conf.c **** /* USER CODE BEGIN 1 */
  61:USB_DEVICE/Target/usbd_conf.c **** 
  62:USB_DEVICE/Target/usbd_conf.c **** /* USER CODE END 1 */
  63:USB_DEVICE/Target/usbd_conf.c **** 
  64:USB_DEVICE/Target/usbd_conf.c **** /*******************************************************************************
  65:USB_DEVICE/Target/usbd_conf.c ****                        LL Driver Callbacks (PCD -> USB Device Library)
  66:USB_DEVICE/Target/usbd_conf.c **** *******************************************************************************/
  67:USB_DEVICE/Target/usbd_conf.c **** /* MSP Init */
  68:USB_DEVICE/Target/usbd_conf.c **** 
  69:USB_DEVICE/Target/usbd_conf.c **** void HAL_PCD_MspInit(PCD_HandleTypeDef* pcdHandle)
  70:USB_DEVICE/Target/usbd_conf.c **** {
  30              		.loc 1 70 1 view -0
  31              		.cfi_startproc
  32              		@ args = 0, pretend = 0, frame = 32
  33              		@ frame_needed = 0, uses_anonymous_args = 0
  34              		.loc 1 70 1 is_stmt 0 view .LVU1
  35 0000 30B5     		push	{r4, r5, lr}
  36              	.LCFI0:
  37              		.cfi_def_cfa_offset 12
  38              		.cfi_offset 4, -12
  39              		.cfi_offset 5, -8
  40              		.cfi_offset 14, -4
  41 0002 89B0     		sub	sp, sp, #36
  42              	.LCFI1:
  43              		.cfi_def_cfa_offset 48
  71:USB_DEVICE/Target/usbd_conf.c ****   GPIO_InitTypeDef GPIO_InitStruct = {0};
  44              		.loc 1 71 3 is_stmt 1 view .LVU2
ARM GAS  C:\Users\oleku\AppData\Local\Temp\ccreWTWk.s 			page 3


  45              		.loc 1 71 20 is_stmt 0 view .LVU3
  46 0004 0023     		movs	r3, #0
  47 0006 0393     		str	r3, [sp, #12]
  48 0008 0493     		str	r3, [sp, #16]
  49 000a 0593     		str	r3, [sp, #20]
  50 000c 0693     		str	r3, [sp, #24]
  51 000e 0793     		str	r3, [sp, #28]
  72:USB_DEVICE/Target/usbd_conf.c ****   if(pcdHandle->Instance==USB_OTG_FS)
  52              		.loc 1 72 3 is_stmt 1 view .LVU4
  53              		.loc 1 72 15 is_stmt 0 view .LVU5
  54 0010 0368     		ldr	r3, [r0]
  55              		.loc 1 72 5 view .LVU6
  56 0012 B3F1A04F 		cmp	r3, #1342177280
  57 0016 01D0     		beq	.L4
  58              	.LVL1:
  59              	.L1:
  73:USB_DEVICE/Target/usbd_conf.c ****   {
  74:USB_DEVICE/Target/usbd_conf.c ****   /* USER CODE BEGIN USB_OTG_FS_MspInit 0 */
  75:USB_DEVICE/Target/usbd_conf.c **** 
  76:USB_DEVICE/Target/usbd_conf.c ****   /* USER CODE END USB_OTG_FS_MspInit 0 */
  77:USB_DEVICE/Target/usbd_conf.c **** 
  78:USB_DEVICE/Target/usbd_conf.c ****     __HAL_RCC_GPIOA_CLK_ENABLE();
  79:USB_DEVICE/Target/usbd_conf.c ****     /**USB_OTG_FS GPIO Configuration
  80:USB_DEVICE/Target/usbd_conf.c ****     PA11     ------> USB_OTG_FS_DM
  81:USB_DEVICE/Target/usbd_conf.c ****     PA12     ------> USB_OTG_FS_DP
  82:USB_DEVICE/Target/usbd_conf.c ****     */
  83:USB_DEVICE/Target/usbd_conf.c ****     GPIO_InitStruct.Pin = GPIO_PIN_11|GPIO_PIN_12;
  84:USB_DEVICE/Target/usbd_conf.c ****     GPIO_InitStruct.Mode = GPIO_MODE_AF_PP;
  85:USB_DEVICE/Target/usbd_conf.c ****     GPIO_InitStruct.Pull = GPIO_NOPULL;
  86:USB_DEVICE/Target/usbd_conf.c ****     GPIO_InitStruct.Speed = GPIO_SPEED_FREQ_VERY_HIGH;
  87:USB_DEVICE/Target/usbd_conf.c ****     GPIO_InitStruct.Alternate = GPIO_AF10_OTG_FS;
  88:USB_DEVICE/Target/usbd_conf.c ****     HAL_GPIO_Init(GPIOA, &GPIO_InitStruct);
  89:USB_DEVICE/Target/usbd_conf.c **** 
  90:USB_DEVICE/Target/usbd_conf.c ****     /* Peripheral clock enable */
  91:USB_DEVICE/Target/usbd_conf.c ****     __HAL_RCC_USB_OTG_FS_CLK_ENABLE();
  92:USB_DEVICE/Target/usbd_conf.c **** 
  93:USB_DEVICE/Target/usbd_conf.c ****     /* Peripheral interrupt init */
  94:USB_DEVICE/Target/usbd_conf.c ****     HAL_NVIC_SetPriority(OTG_FS_IRQn, 5, 0);
  95:USB_DEVICE/Target/usbd_conf.c ****     HAL_NVIC_EnableIRQ(OTG_FS_IRQn);
  96:USB_DEVICE/Target/usbd_conf.c ****   /* USER CODE BEGIN USB_OTG_FS_MspInit 1 */
  97:USB_DEVICE/Target/usbd_conf.c **** 
  98:USB_DEVICE/Target/usbd_conf.c ****   /* USER CODE END USB_OTG_FS_MspInit 1 */
  99:USB_DEVICE/Target/usbd_conf.c ****   }
 100:USB_DEVICE/Target/usbd_conf.c **** }
  60              		.loc 1 100 1 view .LVU7
  61 0018 09B0     		add	sp, sp, #36
  62              	.LCFI2:
  63              		.cfi_remember_state
  64              		.cfi_def_cfa_offset 12
  65              		@ sp needed
  66 001a 30BD     		pop	{r4, r5, pc}
  67              	.LVL2:
  68              	.L4:
  69              	.LCFI3:
  70              		.cfi_restore_state
  71              		.loc 1 100 1 view .LVU8
  72 001c 03AA     		add	r2, sp, #12
ARM GAS  C:\Users\oleku\AppData\Local\Temp\ccreWTWk.s 			page 4


  78:USB_DEVICE/Target/usbd_conf.c ****     /**USB_OTG_FS GPIO Configuration
  73              		.loc 1 78 5 is_stmt 1 view .LVU9
  74              	.LBB2:
  78:USB_DEVICE/Target/usbd_conf.c ****     /**USB_OTG_FS GPIO Configuration
  75              		.loc 1 78 5 view .LVU10
  76 001e 0025     		movs	r5, #0
  77 0020 0195     		str	r5, [sp, #4]
  78:USB_DEVICE/Target/usbd_conf.c ****     /**USB_OTG_FS GPIO Configuration
  78              		.loc 1 78 5 view .LVU11
  79 0022 174C     		ldr	r4, .L5
  80 0024 236B     		ldr	r3, [r4, #48]
  81 0026 43F00103 		orr	r3, r3, #1
  82 002a 2363     		str	r3, [r4, #48]
  78:USB_DEVICE/Target/usbd_conf.c ****     /**USB_OTG_FS GPIO Configuration
  83              		.loc 1 78 5 view .LVU12
  84 002c 236B     		ldr	r3, [r4, #48]
  85 002e 03F00103 		and	r3, r3, #1
  86 0032 0193     		str	r3, [sp, #4]
  78:USB_DEVICE/Target/usbd_conf.c ****     /**USB_OTG_FS GPIO Configuration
  87              		.loc 1 78 5 view .LVU13
  88 0034 019B     		ldr	r3, [sp, #4]
  89              	.LBE2:
  78:USB_DEVICE/Target/usbd_conf.c ****     /**USB_OTG_FS GPIO Configuration
  90              		.loc 1 78 5 view .LVU14
  83:USB_DEVICE/Target/usbd_conf.c ****     GPIO_InitStruct.Mode = GPIO_MODE_AF_PP;
  91              		.loc 1 83 5 view .LVU15
  83:USB_DEVICE/Target/usbd_conf.c ****     GPIO_InitStruct.Mode = GPIO_MODE_AF_PP;
  92              		.loc 1 83 25 is_stmt 0 view .LVU16
  93 0036 4FF4C053 		mov	r3, #6144
  94 003a 0393     		str	r3, [sp, #12]
  84:USB_DEVICE/Target/usbd_conf.c ****     GPIO_InitStruct.Pull = GPIO_NOPULL;
  95              		.loc 1 84 5 is_stmt 1 view .LVU17
  84:USB_DEVICE/Target/usbd_conf.c ****     GPIO_InitStruct.Pull = GPIO_NOPULL;
  96              		.loc 1 84 26 is_stmt 0 view .LVU18
  97 003c 0223     		movs	r3, #2
  98 003e 0493     		str	r3, [sp, #16]
  85:USB_DEVICE/Target/usbd_conf.c ****     GPIO_InitStruct.Speed = GPIO_SPEED_FREQ_VERY_HIGH;
  99              		.loc 1 85 5 is_stmt 1 view .LVU19
  86:USB_DEVICE/Target/usbd_conf.c ****     GPIO_InitStruct.Alternate = GPIO_AF10_OTG_FS;
 100              		.loc 1 86 5 view .LVU20
  86:USB_DEVICE/Target/usbd_conf.c ****     GPIO_InitStruct.Alternate = GPIO_AF10_OTG_FS;
 101              		.loc 1 86 27 is_stmt 0 view .LVU21
 102 0040 0323     		movs	r3, #3
 103 0042 0693     		str	r3, [sp, #24]
  87:USB_DEVICE/Target/usbd_conf.c ****     HAL_GPIO_Init(GPIOA, &GPIO_InitStruct);
 104              		.loc 1 87 5 is_stmt 1 view .LVU22
  87:USB_DEVICE/Target/usbd_conf.c ****     HAL_GPIO_Init(GPIOA, &GPIO_InitStruct);
 105              		.loc 1 87 31 is_stmt 0 view .LVU23
 106 0044 0A23     		movs	r3, #10
 107 0046 0793     		str	r3, [sp, #28]
  88:USB_DEVICE/Target/usbd_conf.c **** 
 108              		.loc 1 88 5 is_stmt 1 view .LVU24
 109 0048 1146     		mov	r1, r2
 110 004a 0E48     		ldr	r0, .L5+4
 111              	.LVL3:
  88:USB_DEVICE/Target/usbd_conf.c **** 
 112              		.loc 1 88 5 is_stmt 0 view .LVU25
ARM GAS  C:\Users\oleku\AppData\Local\Temp\ccreWTWk.s 			page 5


 113 004c FFF7FEFF 		bl	HAL_GPIO_Init
 114              	.LVL4:
  91:USB_DEVICE/Target/usbd_conf.c **** 
 115              		.loc 1 91 5 is_stmt 1 view .LVU26
  91:USB_DEVICE/Target/usbd_conf.c **** 
 116              		.loc 1 91 5 view .LVU27
 117 0050 636B     		ldr	r3, [r4, #52]
 118 0052 43F08003 		orr	r3, r3, #128
 119 0056 6363     		str	r3, [r4, #52]
  91:USB_DEVICE/Target/usbd_conf.c **** 
 120              		.loc 1 91 5 view .LVU28
 121              	.LBB3:
  91:USB_DEVICE/Target/usbd_conf.c **** 
 122              		.loc 1 91 5 view .LVU29
 123 0058 0295     		str	r5, [sp, #8]
  91:USB_DEVICE/Target/usbd_conf.c **** 
 124              		.loc 1 91 5 view .LVU30
 125 005a 636C     		ldr	r3, [r4, #68]
 126 005c 43F48043 		orr	r3, r3, #16384
 127 0060 6364     		str	r3, [r4, #68]
  91:USB_DEVICE/Target/usbd_conf.c **** 
 128              		.loc 1 91 5 view .LVU31
 129 0062 636C     		ldr	r3, [r4, #68]
 130 0064 03F48043 		and	r3, r3, #16384
 131 0068 0293     		str	r3, [sp, #8]
  91:USB_DEVICE/Target/usbd_conf.c **** 
 132              		.loc 1 91 5 view .LVU32
 133 006a 029B     		ldr	r3, [sp, #8]
 134              	.LBE3:
  91:USB_DEVICE/Target/usbd_conf.c **** 
 135              		.loc 1 91 5 view .LVU33
  91:USB_DEVICE/Target/usbd_conf.c **** 
 136              		.loc 1 91 5 view .LVU34
  94:USB_DEVICE/Target/usbd_conf.c ****     HAL_NVIC_EnableIRQ(OTG_FS_IRQn);
 137              		.loc 1 94 5 view .LVU35
 138 006c 2A46     		mov	r2, r5
 139 006e 0521     		movs	r1, #5
 140 0070 4320     		movs	r0, #67
 141 0072 FFF7FEFF 		bl	HAL_NVIC_SetPriority
 142              	.LVL5:
  95:USB_DEVICE/Target/usbd_conf.c ****   /* USER CODE BEGIN USB_OTG_FS_MspInit 1 */
 143              		.loc 1 95 5 view .LVU36
 144 0076 4320     		movs	r0, #67
 145 0078 FFF7FEFF 		bl	HAL_NVIC_EnableIRQ
 146              	.LVL6:
 147              		.loc 1 100 1 is_stmt 0 view .LVU37
 148 007c CCE7     		b	.L1
 149              	.L6:
 150 007e 00BF     		.align	2
 151              	.L5:
 152 0080 00380240 		.word	1073887232
 153 0084 00000240 		.word	1073872896
 154              		.cfi_endproc
 155              	.LFE228:
 157              		.section	.text.HAL_PCD_MspDeInit,"ax",%progbits
 158              		.align	1
 159              		.global	HAL_PCD_MspDeInit
ARM GAS  C:\Users\oleku\AppData\Local\Temp\ccreWTWk.s 			page 6


 160              		.syntax unified
 161              		.thumb
 162              		.thumb_func
 164              	HAL_PCD_MspDeInit:
 165              	.LVL7:
 166              	.LFB229:
 101:USB_DEVICE/Target/usbd_conf.c **** 
 102:USB_DEVICE/Target/usbd_conf.c **** void HAL_PCD_MspDeInit(PCD_HandleTypeDef* pcdHandle)
 103:USB_DEVICE/Target/usbd_conf.c **** {
 167              		.loc 1 103 1 is_stmt 1 view -0
 168              		.cfi_startproc
 169              		@ args = 0, pretend = 0, frame = 0
 170              		@ frame_needed = 0, uses_anonymous_args = 0
 171              		.loc 1 103 1 is_stmt 0 view .LVU39
 172 0000 08B5     		push	{r3, lr}
 173              	.LCFI4:
 174              		.cfi_def_cfa_offset 8
 175              		.cfi_offset 3, -8
 176              		.cfi_offset 14, -4
 104:USB_DEVICE/Target/usbd_conf.c ****   if(pcdHandle->Instance==USB_OTG_FS)
 177              		.loc 1 104 3 is_stmt 1 view .LVU40
 178              		.loc 1 104 15 is_stmt 0 view .LVU41
 179 0002 0368     		ldr	r3, [r0]
 180              		.loc 1 104 5 view .LVU42
 181 0004 B3F1A04F 		cmp	r3, #1342177280
 182 0008 00D0     		beq	.L10
 183              	.LVL8:
 184              	.L7:
 105:USB_DEVICE/Target/usbd_conf.c ****   {
 106:USB_DEVICE/Target/usbd_conf.c ****   /* USER CODE BEGIN USB_OTG_FS_MspDeInit 0 */
 107:USB_DEVICE/Target/usbd_conf.c **** 
 108:USB_DEVICE/Target/usbd_conf.c ****   /* USER CODE END USB_OTG_FS_MspDeInit 0 */
 109:USB_DEVICE/Target/usbd_conf.c ****     /* Peripheral clock disable */
 110:USB_DEVICE/Target/usbd_conf.c ****     __HAL_RCC_USB_OTG_FS_CLK_DISABLE();
 111:USB_DEVICE/Target/usbd_conf.c **** 
 112:USB_DEVICE/Target/usbd_conf.c ****     /**USB_OTG_FS GPIO Configuration
 113:USB_DEVICE/Target/usbd_conf.c ****     PA11     ------> USB_OTG_FS_DM
 114:USB_DEVICE/Target/usbd_conf.c ****     PA12     ------> USB_OTG_FS_DP
 115:USB_DEVICE/Target/usbd_conf.c ****     */
 116:USB_DEVICE/Target/usbd_conf.c ****     HAL_GPIO_DeInit(GPIOA, GPIO_PIN_11|GPIO_PIN_12);
 117:USB_DEVICE/Target/usbd_conf.c **** 
 118:USB_DEVICE/Target/usbd_conf.c ****     /* Peripheral interrupt Deinit*/
 119:USB_DEVICE/Target/usbd_conf.c ****     HAL_NVIC_DisableIRQ(OTG_FS_IRQn);
 120:USB_DEVICE/Target/usbd_conf.c **** 
 121:USB_DEVICE/Target/usbd_conf.c ****   /* USER CODE BEGIN USB_OTG_FS_MspDeInit 1 */
 122:USB_DEVICE/Target/usbd_conf.c **** 
 123:USB_DEVICE/Target/usbd_conf.c ****   /* USER CODE END USB_OTG_FS_MspDeInit 1 */
 124:USB_DEVICE/Target/usbd_conf.c ****   }
 125:USB_DEVICE/Target/usbd_conf.c **** }
 185              		.loc 1 125 1 view .LVU43
 186 000a 08BD     		pop	{r3, pc}
 187              	.LVL9:
 188              	.L10:
 110:USB_DEVICE/Target/usbd_conf.c **** 
 189              		.loc 1 110 5 is_stmt 1 view .LVU44
 190 000c 064A     		ldr	r2, .L11
 191 000e 536B     		ldr	r3, [r2, #52]
ARM GAS  C:\Users\oleku\AppData\Local\Temp\ccreWTWk.s 			page 7


 192 0010 23F08003 		bic	r3, r3, #128
 193 0014 5363     		str	r3, [r2, #52]
 116:USB_DEVICE/Target/usbd_conf.c **** 
 194              		.loc 1 116 5 view .LVU45
 195 0016 4FF4C051 		mov	r1, #6144
 196 001a 0448     		ldr	r0, .L11+4
 197              	.LVL10:
 116:USB_DEVICE/Target/usbd_conf.c **** 
 198              		.loc 1 116 5 is_stmt 0 view .LVU46
 199 001c FFF7FEFF 		bl	HAL_GPIO_DeInit
 200              	.LVL11:
 119:USB_DEVICE/Target/usbd_conf.c **** 
 201              		.loc 1 119 5 is_stmt 1 view .LVU47
 202 0020 4320     		movs	r0, #67
 203 0022 FFF7FEFF 		bl	HAL_NVIC_DisableIRQ
 204              	.LVL12:
 205              		.loc 1 125 1 is_stmt 0 view .LVU48
 206 0026 F0E7     		b	.L7
 207              	.L12:
 208              		.align	2
 209              	.L11:
 210 0028 00380240 		.word	1073887232
 211 002c 00000240 		.word	1073872896
 212              		.cfi_endproc
 213              	.LFE229:
 215              		.section	.text.HAL_PCD_SetupStageCallback,"ax",%progbits
 216              		.align	1
 217              		.global	HAL_PCD_SetupStageCallback
 218              		.syntax unified
 219              		.thumb
 220              		.thumb_func
 222              	HAL_PCD_SetupStageCallback:
 223              	.LVL13:
 224              	.LFB230:
 126:USB_DEVICE/Target/usbd_conf.c **** 
 127:USB_DEVICE/Target/usbd_conf.c **** /**
 128:USB_DEVICE/Target/usbd_conf.c ****   * @brief  Setup stage callback
 129:USB_DEVICE/Target/usbd_conf.c ****   * @param  hpcd: PCD handle
 130:USB_DEVICE/Target/usbd_conf.c ****   * @retval None
 131:USB_DEVICE/Target/usbd_conf.c ****   */
 132:USB_DEVICE/Target/usbd_conf.c **** #if (USE_HAL_PCD_REGISTER_CALLBACKS == 1U)
 133:USB_DEVICE/Target/usbd_conf.c **** static void PCD_SetupStageCallback(PCD_HandleTypeDef *hpcd)
 134:USB_DEVICE/Target/usbd_conf.c **** #else
 135:USB_DEVICE/Target/usbd_conf.c **** void HAL_PCD_SetupStageCallback(PCD_HandleTypeDef *hpcd)
 136:USB_DEVICE/Target/usbd_conf.c **** #endif /* USE_HAL_PCD_REGISTER_CALLBACKS */
 137:USB_DEVICE/Target/usbd_conf.c **** {
 225              		.loc 1 137 1 is_stmt 1 view -0
 226              		.cfi_startproc
 227              		@ args = 0, pretend = 0, frame = 0
 228              		@ frame_needed = 0, uses_anonymous_args = 0
 229              		.loc 1 137 1 is_stmt 0 view .LVU50
 230 0000 08B5     		push	{r3, lr}
 231              	.LCFI5:
 232              		.cfi_def_cfa_offset 8
 233              		.cfi_offset 3, -8
 234              		.cfi_offset 14, -4
 138:USB_DEVICE/Target/usbd_conf.c ****   USBD_LL_SetupStage((USBD_HandleTypeDef*)hpcd->pData, (uint8_t *)hpcd->Setup);
ARM GAS  C:\Users\oleku\AppData\Local\Temp\ccreWTWk.s 			page 8


 235              		.loc 1 138 3 is_stmt 1 view .LVU51
 236 0002 00F29C41 		addw	r1, r0, #1180
 237 0006 D0F8E004 		ldr	r0, [r0, #1248]
 238              	.LVL14:
 239              		.loc 1 138 3 is_stmt 0 view .LVU52
 240 000a FFF7FEFF 		bl	USBD_LL_SetupStage
 241              	.LVL15:
 139:USB_DEVICE/Target/usbd_conf.c **** }
 242              		.loc 1 139 1 view .LVU53
 243 000e 08BD     		pop	{r3, pc}
 244              		.cfi_endproc
 245              	.LFE230:
 247              		.section	.text.HAL_PCD_DataOutStageCallback,"ax",%progbits
 248              		.align	1
 249              		.global	HAL_PCD_DataOutStageCallback
 250              		.syntax unified
 251              		.thumb
 252              		.thumb_func
 254              	HAL_PCD_DataOutStageCallback:
 255              	.LVL16:
 256              	.LFB231:
 140:USB_DEVICE/Target/usbd_conf.c **** 
 141:USB_DEVICE/Target/usbd_conf.c **** /**
 142:USB_DEVICE/Target/usbd_conf.c ****   * @brief  Data Out stage callback.
 143:USB_DEVICE/Target/usbd_conf.c ****   * @param  hpcd: PCD handle
 144:USB_DEVICE/Target/usbd_conf.c ****   * @param  epnum: Endpoint number
 145:USB_DEVICE/Target/usbd_conf.c ****   * @retval None
 146:USB_DEVICE/Target/usbd_conf.c ****   */
 147:USB_DEVICE/Target/usbd_conf.c **** #if (USE_HAL_PCD_REGISTER_CALLBACKS == 1U)
 148:USB_DEVICE/Target/usbd_conf.c **** static void PCD_DataOutStageCallback(PCD_HandleTypeDef *hpcd, uint8_t epnum)
 149:USB_DEVICE/Target/usbd_conf.c **** #else
 150:USB_DEVICE/Target/usbd_conf.c **** void HAL_PCD_DataOutStageCallback(PCD_HandleTypeDef *hpcd, uint8_t epnum)
 151:USB_DEVICE/Target/usbd_conf.c **** #endif /* USE_HAL_PCD_REGISTER_CALLBACKS */
 152:USB_DEVICE/Target/usbd_conf.c **** {
 257              		.loc 1 152 1 is_stmt 1 view -0
 258              		.cfi_startproc
 259              		@ args = 0, pretend = 0, frame = 0
 260              		@ frame_needed = 0, uses_anonymous_args = 0
 261              		.loc 1 152 1 is_stmt 0 view .LVU55
 262 0000 08B5     		push	{r3, lr}
 263              	.LCFI6:
 264              		.cfi_def_cfa_offset 8
 265              		.cfi_offset 3, -8
 266              		.cfi_offset 14, -4
 153:USB_DEVICE/Target/usbd_conf.c ****   USBD_LL_DataOutStage((USBD_HandleTypeDef*)hpcd->pData, epnum, hpcd->OUT_ep[epnum].xfer_buff);
 267              		.loc 1 153 3 is_stmt 1 view .LVU56
 268 0002 01EBC103 		add	r3, r1, r1, lsl #3
 269 0006 00EB8303 		add	r3, r0, r3, lsl #2
 270 000a D3F86022 		ldr	r2, [r3, #608]
 271 000e D0F8E004 		ldr	r0, [r0, #1248]
 272              	.LVL17:
 273              		.loc 1 153 3 is_stmt 0 view .LVU57
 274 0012 FFF7FEFF 		bl	USBD_LL_DataOutStage
 275              	.LVL18:
 154:USB_DEVICE/Target/usbd_conf.c **** }
 276              		.loc 1 154 1 view .LVU58
 277 0016 08BD     		pop	{r3, pc}
ARM GAS  C:\Users\oleku\AppData\Local\Temp\ccreWTWk.s 			page 9


 278              		.cfi_endproc
 279              	.LFE231:
 281              		.section	.text.HAL_PCD_DataInStageCallback,"ax",%progbits
 282              		.align	1
 283              		.global	HAL_PCD_DataInStageCallback
 284              		.syntax unified
 285              		.thumb
 286              		.thumb_func
 288              	HAL_PCD_DataInStageCallback:
 289              	.LVL19:
 290              	.LFB232:
 155:USB_DEVICE/Target/usbd_conf.c **** 
 156:USB_DEVICE/Target/usbd_conf.c **** /**
 157:USB_DEVICE/Target/usbd_conf.c ****   * @brief  Data In stage callback.
 158:USB_DEVICE/Target/usbd_conf.c ****   * @param  hpcd: PCD handle
 159:USB_DEVICE/Target/usbd_conf.c ****   * @param  epnum: Endpoint number
 160:USB_DEVICE/Target/usbd_conf.c ****   * @retval None
 161:USB_DEVICE/Target/usbd_conf.c ****   */
 162:USB_DEVICE/Target/usbd_conf.c **** #if (USE_HAL_PCD_REGISTER_CALLBACKS == 1U)
 163:USB_DEVICE/Target/usbd_conf.c **** static void PCD_DataInStageCallback(PCD_HandleTypeDef *hpcd, uint8_t epnum)
 164:USB_DEVICE/Target/usbd_conf.c **** #else
 165:USB_DEVICE/Target/usbd_conf.c **** void HAL_PCD_DataInStageCallback(PCD_HandleTypeDef *hpcd, uint8_t epnum)
 166:USB_DEVICE/Target/usbd_conf.c **** #endif /* USE_HAL_PCD_REGISTER_CALLBACKS */
 167:USB_DEVICE/Target/usbd_conf.c **** {
 291              		.loc 1 167 1 is_stmt 1 view -0
 292              		.cfi_startproc
 293              		@ args = 0, pretend = 0, frame = 0
 294              		@ frame_needed = 0, uses_anonymous_args = 0
 295              		.loc 1 167 1 is_stmt 0 view .LVU60
 296 0000 08B5     		push	{r3, lr}
 297              	.LCFI7:
 298              		.cfi_def_cfa_offset 8
 299              		.cfi_offset 3, -8
 300              		.cfi_offset 14, -4
 168:USB_DEVICE/Target/usbd_conf.c ****   USBD_LL_DataInStage((USBD_HandleTypeDef*)hpcd->pData, epnum, hpcd->IN_ep[epnum].xfer_buff);
 301              		.loc 1 168 3 is_stmt 1 view .LVU61
 302 0002 01EBC103 		add	r3, r1, r1, lsl #3
 303 0006 00EB8303 		add	r3, r0, r3, lsl #2
 304 000a 1A6A     		ldr	r2, [r3, #32]
 305 000c D0F8E004 		ldr	r0, [r0, #1248]
 306              	.LVL20:
 307              		.loc 1 168 3 is_stmt 0 view .LVU62
 308 0010 FFF7FEFF 		bl	USBD_LL_DataInStage
 309              	.LVL21:
 169:USB_DEVICE/Target/usbd_conf.c **** }
 310              		.loc 1 169 1 view .LVU63
 311 0014 08BD     		pop	{r3, pc}
 312              		.cfi_endproc
 313              	.LFE232:
 315              		.section	.text.HAL_PCD_SOFCallback,"ax",%progbits
 316              		.align	1
 317              		.global	HAL_PCD_SOFCallback
 318              		.syntax unified
 319              		.thumb
 320              		.thumb_func
 322              	HAL_PCD_SOFCallback:
 323              	.LVL22:
ARM GAS  C:\Users\oleku\AppData\Local\Temp\ccreWTWk.s 			page 10


 324              	.LFB233:
 170:USB_DEVICE/Target/usbd_conf.c **** 
 171:USB_DEVICE/Target/usbd_conf.c **** /**
 172:USB_DEVICE/Target/usbd_conf.c ****   * @brief  SOF callback.
 173:USB_DEVICE/Target/usbd_conf.c ****   * @param  hpcd: PCD handle
 174:USB_DEVICE/Target/usbd_conf.c ****   * @retval None
 175:USB_DEVICE/Target/usbd_conf.c ****   */
 176:USB_DEVICE/Target/usbd_conf.c **** #if (USE_HAL_PCD_REGISTER_CALLBACKS == 1U)
 177:USB_DEVICE/Target/usbd_conf.c **** static void PCD_SOFCallback(PCD_HandleTypeDef *hpcd)
 178:USB_DEVICE/Target/usbd_conf.c **** #else
 179:USB_DEVICE/Target/usbd_conf.c **** void HAL_PCD_SOFCallback(PCD_HandleTypeDef *hpcd)
 180:USB_DEVICE/Target/usbd_conf.c **** #endif /* USE_HAL_PCD_REGISTER_CALLBACKS */
 181:USB_DEVICE/Target/usbd_conf.c **** {
 325              		.loc 1 181 1 is_stmt 1 view -0
 326              		.cfi_startproc
 327              		@ args = 0, pretend = 0, frame = 0
 328              		@ frame_needed = 0, uses_anonymous_args = 0
 329              		.loc 1 181 1 is_stmt 0 view .LVU65
 330 0000 08B5     		push	{r3, lr}
 331              	.LCFI8:
 332              		.cfi_def_cfa_offset 8
 333              		.cfi_offset 3, -8
 334              		.cfi_offset 14, -4
 182:USB_DEVICE/Target/usbd_conf.c ****   USBD_LL_SOF((USBD_HandleTypeDef*)hpcd->pData);
 335              		.loc 1 182 3 is_stmt 1 view .LVU66
 336 0002 D0F8E004 		ldr	r0, [r0, #1248]
 337              	.LVL23:
 338              		.loc 1 182 3 is_stmt 0 view .LVU67
 339 0006 FFF7FEFF 		bl	USBD_LL_SOF
 340              	.LVL24:
 183:USB_DEVICE/Target/usbd_conf.c **** }
 341              		.loc 1 183 1 view .LVU68
 342 000a 08BD     		pop	{r3, pc}
 343              		.cfi_endproc
 344              	.LFE233:
 346              		.section	.text.HAL_PCD_ResetCallback,"ax",%progbits
 347              		.align	1
 348              		.global	HAL_PCD_ResetCallback
 349              		.syntax unified
 350              		.thumb
 351              		.thumb_func
 353              	HAL_PCD_ResetCallback:
 354              	.LVL25:
 355              	.LFB234:
 184:USB_DEVICE/Target/usbd_conf.c **** 
 185:USB_DEVICE/Target/usbd_conf.c **** /**
 186:USB_DEVICE/Target/usbd_conf.c ****   * @brief  Reset callback.
 187:USB_DEVICE/Target/usbd_conf.c ****   * @param  hpcd: PCD handle
 188:USB_DEVICE/Target/usbd_conf.c ****   * @retval None
 189:USB_DEVICE/Target/usbd_conf.c ****   */
 190:USB_DEVICE/Target/usbd_conf.c **** #if (USE_HAL_PCD_REGISTER_CALLBACKS == 1U)
 191:USB_DEVICE/Target/usbd_conf.c **** static void PCD_ResetCallback(PCD_HandleTypeDef *hpcd)
 192:USB_DEVICE/Target/usbd_conf.c **** #else
 193:USB_DEVICE/Target/usbd_conf.c **** void HAL_PCD_ResetCallback(PCD_HandleTypeDef *hpcd)
 194:USB_DEVICE/Target/usbd_conf.c **** #endif /* USE_HAL_PCD_REGISTER_CALLBACKS */
 195:USB_DEVICE/Target/usbd_conf.c **** {
 356              		.loc 1 195 1 is_stmt 1 view -0
ARM GAS  C:\Users\oleku\AppData\Local\Temp\ccreWTWk.s 			page 11


 357              		.cfi_startproc
 358              		@ args = 0, pretend = 0, frame = 0
 359              		@ frame_needed = 0, uses_anonymous_args = 0
 360              		.loc 1 195 1 is_stmt 0 view .LVU70
 361 0000 10B5     		push	{r4, lr}
 362              	.LCFI9:
 363              		.cfi_def_cfa_offset 8
 364              		.cfi_offset 4, -8
 365              		.cfi_offset 14, -4
 366 0002 0446     		mov	r4, r0
 196:USB_DEVICE/Target/usbd_conf.c ****    USBD_SpeedTypeDef speed = USBD_SPEED_FULL;
 367              		.loc 1 196 4 is_stmt 1 view .LVU71
 368              	.LVL26:
 197:USB_DEVICE/Target/usbd_conf.c **** 
 198:USB_DEVICE/Target/usbd_conf.c ****   if ( hpcd->Init.speed != PCD_SPEED_FULL)
 369              		.loc 1 198 3 view .LVU72
 370              		.loc 1 198 18 is_stmt 0 view .LVU73
 371 0004 C379     		ldrb	r3, [r0, #7]	@ zero_extendqisi2
 372              		.loc 1 198 6 view .LVU74
 373 0006 022B     		cmp	r3, #2
 374 0008 09D1     		bne	.L24
 375              	.LVL27:
 376              	.L22:
 199:USB_DEVICE/Target/usbd_conf.c ****   {
 200:USB_DEVICE/Target/usbd_conf.c ****     Error_Handler();
 201:USB_DEVICE/Target/usbd_conf.c ****   }
 202:USB_DEVICE/Target/usbd_conf.c ****     /* Set Speed. */
 203:USB_DEVICE/Target/usbd_conf.c ****   USBD_LL_SetSpeed((USBD_HandleTypeDef*)hpcd->pData, speed);
 377              		.loc 1 203 3 is_stmt 1 view .LVU75
 378 000a 0121     		movs	r1, #1
 379 000c D4F8E004 		ldr	r0, [r4, #1248]
 380 0010 FFF7FEFF 		bl	USBD_LL_SetSpeed
 381              	.LVL28:
 204:USB_DEVICE/Target/usbd_conf.c **** 
 205:USB_DEVICE/Target/usbd_conf.c ****   /* Reset Device. */
 206:USB_DEVICE/Target/usbd_conf.c ****   USBD_LL_Reset((USBD_HandleTypeDef*)hpcd->pData);
 382              		.loc 1 206 3 view .LVU76
 383 0014 D4F8E004 		ldr	r0, [r4, #1248]
 384 0018 FFF7FEFF 		bl	USBD_LL_Reset
 385              	.LVL29:
 207:USB_DEVICE/Target/usbd_conf.c **** }
 386              		.loc 1 207 1 is_stmt 0 view .LVU77
 387 001c 10BD     		pop	{r4, pc}
 388              	.LVL30:
 389              	.L24:
 200:USB_DEVICE/Target/usbd_conf.c ****   }
 390              		.loc 1 200 5 is_stmt 1 view .LVU78
 391 001e FFF7FEFF 		bl	Error_Handler
 392              	.LVL31:
 200:USB_DEVICE/Target/usbd_conf.c ****   }
 393              		.loc 1 200 5 is_stmt 0 view .LVU79
 394 0022 F2E7     		b	.L22
 395              		.cfi_endproc
 396              	.LFE234:
 398              		.section	.text.HAL_PCD_SuspendCallback,"ax",%progbits
 399              		.align	1
 400              		.global	HAL_PCD_SuspendCallback
ARM GAS  C:\Users\oleku\AppData\Local\Temp\ccreWTWk.s 			page 12


 401              		.syntax unified
 402              		.thumb
 403              		.thumb_func
 405              	HAL_PCD_SuspendCallback:
 406              	.LVL32:
 407              	.LFB235:
 208:USB_DEVICE/Target/usbd_conf.c **** 
 209:USB_DEVICE/Target/usbd_conf.c **** /**
 210:USB_DEVICE/Target/usbd_conf.c ****   * @brief  Suspend callback.
 211:USB_DEVICE/Target/usbd_conf.c ****   * When Low power mode is enabled the debug cannot be used (IAR, Keil doesn't support it)
 212:USB_DEVICE/Target/usbd_conf.c ****   * @param  hpcd: PCD handle
 213:USB_DEVICE/Target/usbd_conf.c ****   * @retval None
 214:USB_DEVICE/Target/usbd_conf.c ****   */
 215:USB_DEVICE/Target/usbd_conf.c **** #if (USE_HAL_PCD_REGISTER_CALLBACKS == 1U)
 216:USB_DEVICE/Target/usbd_conf.c **** static void PCD_SuspendCallback(PCD_HandleTypeDef *hpcd)
 217:USB_DEVICE/Target/usbd_conf.c **** #else
 218:USB_DEVICE/Target/usbd_conf.c **** void HAL_PCD_SuspendCallback(PCD_HandleTypeDef *hpcd)
 219:USB_DEVICE/Target/usbd_conf.c **** #endif /* USE_HAL_PCD_REGISTER_CALLBACKS */
 220:USB_DEVICE/Target/usbd_conf.c **** {
 408              		.loc 1 220 1 is_stmt 1 view -0
 409              		.cfi_startproc
 410              		@ args = 0, pretend = 0, frame = 0
 411              		@ frame_needed = 0, uses_anonymous_args = 0
 412              		.loc 1 220 1 is_stmt 0 view .LVU81
 413 0000 10B5     		push	{r4, lr}
 414              	.LCFI10:
 415              		.cfi_def_cfa_offset 8
 416              		.cfi_offset 4, -8
 417              		.cfi_offset 14, -4
 418 0002 0446     		mov	r4, r0
 221:USB_DEVICE/Target/usbd_conf.c ****   /* Inform USB library that core enters in suspend Mode. */
 222:USB_DEVICE/Target/usbd_conf.c ****   USBD_LL_Suspend((USBD_HandleTypeDef*)hpcd->pData);
 419              		.loc 1 222 3 is_stmt 1 view .LVU82
 420 0004 D0F8E004 		ldr	r0, [r0, #1248]
 421              	.LVL33:
 422              		.loc 1 222 3 is_stmt 0 view .LVU83
 423 0008 FFF7FEFF 		bl	USBD_LL_Suspend
 424              	.LVL34:
 223:USB_DEVICE/Target/usbd_conf.c ****   __HAL_PCD_GATE_PHYCLOCK(hpcd);
 425              		.loc 1 223 3 is_stmt 1 view .LVU84
 426 000c 2268     		ldr	r2, [r4]
 427 000e D2F8003E 		ldr	r3, [r2, #3584]
 428 0012 43F00103 		orr	r3, r3, #1
 429 0016 C2F8003E 		str	r3, [r2, #3584]
 224:USB_DEVICE/Target/usbd_conf.c ****   /* Enter in STOP mode. */
 225:USB_DEVICE/Target/usbd_conf.c ****   /* USER CODE BEGIN 2 */
 226:USB_DEVICE/Target/usbd_conf.c ****   if (hpcd->Init.low_power_enable)
 430              		.loc 1 226 3 view .LVU85
 431              		.loc 1 226 17 is_stmt 0 view .LVU86
 432 001a E37A     		ldrb	r3, [r4, #11]	@ zero_extendqisi2
 433              		.loc 1 226 6 view .LVU87
 434 001c 23B1     		cbz	r3, .L25
 227:USB_DEVICE/Target/usbd_conf.c ****   {
 228:USB_DEVICE/Target/usbd_conf.c ****     /* Set SLEEPDEEP bit and SleepOnExit of Cortex System Control Register. */
 229:USB_DEVICE/Target/usbd_conf.c ****     SCB->SCR |= (uint32_t)((uint32_t)(SCB_SCR_SLEEPDEEP_Msk | SCB_SCR_SLEEPONEXIT_Msk));
 435              		.loc 1 229 5 is_stmt 1 view .LVU88
 436              		.loc 1 229 8 is_stmt 0 view .LVU89
ARM GAS  C:\Users\oleku\AppData\Local\Temp\ccreWTWk.s 			page 13


 437 001e 034A     		ldr	r2, .L28
 438 0020 1369     		ldr	r3, [r2, #16]
 439              		.loc 1 229 14 view .LVU90
 440 0022 43F00603 		orr	r3, r3, #6
 441 0026 1361     		str	r3, [r2, #16]
 442              	.L25:
 230:USB_DEVICE/Target/usbd_conf.c ****   }
 231:USB_DEVICE/Target/usbd_conf.c ****   /* USER CODE END 2 */
 232:USB_DEVICE/Target/usbd_conf.c **** }
 443              		.loc 1 232 1 view .LVU91
 444 0028 10BD     		pop	{r4, pc}
 445              	.LVL35:
 446              	.L29:
 447              		.loc 1 232 1 view .LVU92
 448 002a 00BF     		.align	2
 449              	.L28:
 450 002c 00ED00E0 		.word	-536810240
 451              		.cfi_endproc
 452              	.LFE235:
 454              		.section	.text.HAL_PCD_ResumeCallback,"ax",%progbits
 455              		.align	1
 456              		.global	HAL_PCD_ResumeCallback
 457              		.syntax unified
 458              		.thumb
 459              		.thumb_func
 461              	HAL_PCD_ResumeCallback:
 462              	.LVL36:
 463              	.LFB236:
 233:USB_DEVICE/Target/usbd_conf.c **** 
 234:USB_DEVICE/Target/usbd_conf.c **** /**
 235:USB_DEVICE/Target/usbd_conf.c ****   * @brief  Resume callback.
 236:USB_DEVICE/Target/usbd_conf.c ****   * When Low power mode is enabled the debug cannot be used (IAR, Keil doesn't support it)
 237:USB_DEVICE/Target/usbd_conf.c ****   * @param  hpcd: PCD handle
 238:USB_DEVICE/Target/usbd_conf.c ****   * @retval None
 239:USB_DEVICE/Target/usbd_conf.c ****   */
 240:USB_DEVICE/Target/usbd_conf.c **** #if (USE_HAL_PCD_REGISTER_CALLBACKS == 1U)
 241:USB_DEVICE/Target/usbd_conf.c **** static void PCD_ResumeCallback(PCD_HandleTypeDef *hpcd)
 242:USB_DEVICE/Target/usbd_conf.c **** #else
 243:USB_DEVICE/Target/usbd_conf.c **** void HAL_PCD_ResumeCallback(PCD_HandleTypeDef *hpcd)
 244:USB_DEVICE/Target/usbd_conf.c **** #endif /* USE_HAL_PCD_REGISTER_CALLBACKS */
 245:USB_DEVICE/Target/usbd_conf.c **** {
 464              		.loc 1 245 1 is_stmt 1 view -0
 465              		.cfi_startproc
 466              		@ args = 0, pretend = 0, frame = 0
 467              		@ frame_needed = 0, uses_anonymous_args = 0
 468              		.loc 1 245 1 is_stmt 0 view .LVU94
 469 0000 08B5     		push	{r3, lr}
 470              	.LCFI11:
 471              		.cfi_def_cfa_offset 8
 472              		.cfi_offset 3, -8
 473              		.cfi_offset 14, -4
 246:USB_DEVICE/Target/usbd_conf.c ****   /* USER CODE BEGIN 3 */
 247:USB_DEVICE/Target/usbd_conf.c **** 
 248:USB_DEVICE/Target/usbd_conf.c ****   /* USER CODE END 3 */
 249:USB_DEVICE/Target/usbd_conf.c ****   USBD_LL_Resume((USBD_HandleTypeDef*)hpcd->pData);
 474              		.loc 1 249 3 is_stmt 1 view .LVU95
 475 0002 D0F8E004 		ldr	r0, [r0, #1248]
ARM GAS  C:\Users\oleku\AppData\Local\Temp\ccreWTWk.s 			page 14


 476              	.LVL37:
 477              		.loc 1 249 3 is_stmt 0 view .LVU96
 478 0006 FFF7FEFF 		bl	USBD_LL_Resume
 479              	.LVL38:
 250:USB_DEVICE/Target/usbd_conf.c **** }
 480              		.loc 1 250 1 view .LVU97
 481 000a 08BD     		pop	{r3, pc}
 482              		.cfi_endproc
 483              	.LFE236:
 485              		.section	.text.HAL_PCD_ISOOUTIncompleteCallback,"ax",%progbits
 486              		.align	1
 487              		.global	HAL_PCD_ISOOUTIncompleteCallback
 488              		.syntax unified
 489              		.thumb
 490              		.thumb_func
 492              	HAL_PCD_ISOOUTIncompleteCallback:
 493              	.LVL39:
 494              	.LFB237:
 251:USB_DEVICE/Target/usbd_conf.c **** 
 252:USB_DEVICE/Target/usbd_conf.c **** /**
 253:USB_DEVICE/Target/usbd_conf.c ****   * @brief  ISOOUTIncomplete callback.
 254:USB_DEVICE/Target/usbd_conf.c ****   * @param  hpcd: PCD handle
 255:USB_DEVICE/Target/usbd_conf.c ****   * @param  epnum: Endpoint number
 256:USB_DEVICE/Target/usbd_conf.c ****   * @retval None
 257:USB_DEVICE/Target/usbd_conf.c ****   */
 258:USB_DEVICE/Target/usbd_conf.c **** #if (USE_HAL_PCD_REGISTER_CALLBACKS == 1U)
 259:USB_DEVICE/Target/usbd_conf.c **** static void PCD_ISOOUTIncompleteCallback(PCD_HandleTypeDef *hpcd, uint8_t epnum)
 260:USB_DEVICE/Target/usbd_conf.c **** #else
 261:USB_DEVICE/Target/usbd_conf.c **** void HAL_PCD_ISOOUTIncompleteCallback(PCD_HandleTypeDef *hpcd, uint8_t epnum)
 262:USB_DEVICE/Target/usbd_conf.c **** #endif /* USE_HAL_PCD_REGISTER_CALLBACKS */
 263:USB_DEVICE/Target/usbd_conf.c **** {
 495              		.loc 1 263 1 is_stmt 1 view -0
 496              		.cfi_startproc
 497              		@ args = 0, pretend = 0, frame = 0
 498              		@ frame_needed = 0, uses_anonymous_args = 0
 499              		.loc 1 263 1 is_stmt 0 view .LVU99
 500 0000 08B5     		push	{r3, lr}
 501              	.LCFI12:
 502              		.cfi_def_cfa_offset 8
 503              		.cfi_offset 3, -8
 504              		.cfi_offset 14, -4
 264:USB_DEVICE/Target/usbd_conf.c ****   USBD_LL_IsoOUTIncomplete((USBD_HandleTypeDef*)hpcd->pData, epnum);
 505              		.loc 1 264 3 is_stmt 1 view .LVU100
 506 0002 D0F8E004 		ldr	r0, [r0, #1248]
 507              	.LVL40:
 508              		.loc 1 264 3 is_stmt 0 view .LVU101
 509 0006 FFF7FEFF 		bl	USBD_LL_IsoOUTIncomplete
 510              	.LVL41:
 265:USB_DEVICE/Target/usbd_conf.c **** }
 511              		.loc 1 265 1 view .LVU102
 512 000a 08BD     		pop	{r3, pc}
 513              		.cfi_endproc
 514              	.LFE237:
 516              		.section	.text.HAL_PCD_ISOINIncompleteCallback,"ax",%progbits
 517              		.align	1
 518              		.global	HAL_PCD_ISOINIncompleteCallback
 519              		.syntax unified
ARM GAS  C:\Users\oleku\AppData\Local\Temp\ccreWTWk.s 			page 15


 520              		.thumb
 521              		.thumb_func
 523              	HAL_PCD_ISOINIncompleteCallback:
 524              	.LVL42:
 525              	.LFB238:
 266:USB_DEVICE/Target/usbd_conf.c **** 
 267:USB_DEVICE/Target/usbd_conf.c **** /**
 268:USB_DEVICE/Target/usbd_conf.c ****   * @brief  ISOINIncomplete callback.
 269:USB_DEVICE/Target/usbd_conf.c ****   * @param  hpcd: PCD handle
 270:USB_DEVICE/Target/usbd_conf.c ****   * @param  epnum: Endpoint number
 271:USB_DEVICE/Target/usbd_conf.c ****   * @retval None
 272:USB_DEVICE/Target/usbd_conf.c ****   */
 273:USB_DEVICE/Target/usbd_conf.c **** #if (USE_HAL_PCD_REGISTER_CALLBACKS == 1U)
 274:USB_DEVICE/Target/usbd_conf.c **** static void PCD_ISOINIncompleteCallback(PCD_HandleTypeDef *hpcd, uint8_t epnum)
 275:USB_DEVICE/Target/usbd_conf.c **** #else
 276:USB_DEVICE/Target/usbd_conf.c **** void HAL_PCD_ISOINIncompleteCallback(PCD_HandleTypeDef *hpcd, uint8_t epnum)
 277:USB_DEVICE/Target/usbd_conf.c **** #endif /* USE_HAL_PCD_REGISTER_CALLBACKS */
 278:USB_DEVICE/Target/usbd_conf.c **** {
 526              		.loc 1 278 1 is_stmt 1 view -0
 527              		.cfi_startproc
 528              		@ args = 0, pretend = 0, frame = 0
 529              		@ frame_needed = 0, uses_anonymous_args = 0
 530              		.loc 1 278 1 is_stmt 0 view .LVU104
 531 0000 08B5     		push	{r3, lr}
 532              	.LCFI13:
 533              		.cfi_def_cfa_offset 8
 534              		.cfi_offset 3, -8
 535              		.cfi_offset 14, -4
 279:USB_DEVICE/Target/usbd_conf.c ****   USBD_LL_IsoINIncomplete((USBD_HandleTypeDef*)hpcd->pData, epnum);
 536              		.loc 1 279 3 is_stmt 1 view .LVU105
 537 0002 D0F8E004 		ldr	r0, [r0, #1248]
 538              	.LVL43:
 539              		.loc 1 279 3 is_stmt 0 view .LVU106
 540 0006 FFF7FEFF 		bl	USBD_LL_IsoINIncomplete
 541              	.LVL44:
 280:USB_DEVICE/Target/usbd_conf.c **** }
 542              		.loc 1 280 1 view .LVU107
 543 000a 08BD     		pop	{r3, pc}
 544              		.cfi_endproc
 545              	.LFE238:
 547              		.section	.text.HAL_PCD_ConnectCallback,"ax",%progbits
 548              		.align	1
 549              		.global	HAL_PCD_ConnectCallback
 550              		.syntax unified
 551              		.thumb
 552              		.thumb_func
 554              	HAL_PCD_ConnectCallback:
 555              	.LVL45:
 556              	.LFB239:
 281:USB_DEVICE/Target/usbd_conf.c **** 
 282:USB_DEVICE/Target/usbd_conf.c **** /**
 283:USB_DEVICE/Target/usbd_conf.c ****   * @brief  Connect callback.
 284:USB_DEVICE/Target/usbd_conf.c ****   * @param  hpcd: PCD handle
 285:USB_DEVICE/Target/usbd_conf.c ****   * @retval None
 286:USB_DEVICE/Target/usbd_conf.c ****   */
 287:USB_DEVICE/Target/usbd_conf.c **** #if (USE_HAL_PCD_REGISTER_CALLBACKS == 1U)
 288:USB_DEVICE/Target/usbd_conf.c **** static void PCD_ConnectCallback(PCD_HandleTypeDef *hpcd)
ARM GAS  C:\Users\oleku\AppData\Local\Temp\ccreWTWk.s 			page 16


 289:USB_DEVICE/Target/usbd_conf.c **** #else
 290:USB_DEVICE/Target/usbd_conf.c **** void HAL_PCD_ConnectCallback(PCD_HandleTypeDef *hpcd)
 291:USB_DEVICE/Target/usbd_conf.c **** #endif /* USE_HAL_PCD_REGISTER_CALLBACKS */
 292:USB_DEVICE/Target/usbd_conf.c **** {
 557              		.loc 1 292 1 is_stmt 1 view -0
 558              		.cfi_startproc
 559              		@ args = 0, pretend = 0, frame = 0
 560              		@ frame_needed = 0, uses_anonymous_args = 0
 561              		.loc 1 292 1 is_stmt 0 view .LVU109
 562 0000 08B5     		push	{r3, lr}
 563              	.LCFI14:
 564              		.cfi_def_cfa_offset 8
 565              		.cfi_offset 3, -8
 566              		.cfi_offset 14, -4
 293:USB_DEVICE/Target/usbd_conf.c ****   USBD_LL_DevConnected((USBD_HandleTypeDef*)hpcd->pData);
 567              		.loc 1 293 3 is_stmt 1 view .LVU110
 568 0002 D0F8E004 		ldr	r0, [r0, #1248]
 569              	.LVL46:
 570              		.loc 1 293 3 is_stmt 0 view .LVU111
 571 0006 FFF7FEFF 		bl	USBD_LL_DevConnected
 572              	.LVL47:
 294:USB_DEVICE/Target/usbd_conf.c **** }
 573              		.loc 1 294 1 view .LVU112
 574 000a 08BD     		pop	{r3, pc}
 575              		.cfi_endproc
 576              	.LFE239:
 578              		.section	.text.HAL_PCD_DisconnectCallback,"ax",%progbits
 579              		.align	1
 580              		.global	HAL_PCD_DisconnectCallback
 581              		.syntax unified
 582              		.thumb
 583              		.thumb_func
 585              	HAL_PCD_DisconnectCallback:
 586              	.LVL48:
 587              	.LFB240:
 295:USB_DEVICE/Target/usbd_conf.c **** 
 296:USB_DEVICE/Target/usbd_conf.c **** /**
 297:USB_DEVICE/Target/usbd_conf.c ****   * @brief  Disconnect callback.
 298:USB_DEVICE/Target/usbd_conf.c ****   * @param  hpcd: PCD handle
 299:USB_DEVICE/Target/usbd_conf.c ****   * @retval None
 300:USB_DEVICE/Target/usbd_conf.c ****   */
 301:USB_DEVICE/Target/usbd_conf.c **** #if (USE_HAL_PCD_REGISTER_CALLBACKS == 1U)
 302:USB_DEVICE/Target/usbd_conf.c **** static void PCD_DisconnectCallback(PCD_HandleTypeDef *hpcd)
 303:USB_DEVICE/Target/usbd_conf.c **** #else
 304:USB_DEVICE/Target/usbd_conf.c **** void HAL_PCD_DisconnectCallback(PCD_HandleTypeDef *hpcd)
 305:USB_DEVICE/Target/usbd_conf.c **** #endif /* USE_HAL_PCD_REGISTER_CALLBACKS */
 306:USB_DEVICE/Target/usbd_conf.c **** {
 588              		.loc 1 306 1 is_stmt 1 view -0
 589              		.cfi_startproc
 590              		@ args = 0, pretend = 0, frame = 0
 591              		@ frame_needed = 0, uses_anonymous_args = 0
 592              		.loc 1 306 1 is_stmt 0 view .LVU114
 593 0000 08B5     		push	{r3, lr}
 594              	.LCFI15:
 595              		.cfi_def_cfa_offset 8
 596              		.cfi_offset 3, -8
 597              		.cfi_offset 14, -4
ARM GAS  C:\Users\oleku\AppData\Local\Temp\ccreWTWk.s 			page 17


 307:USB_DEVICE/Target/usbd_conf.c ****   USBD_LL_DevDisconnected((USBD_HandleTypeDef*)hpcd->pData);
 598              		.loc 1 307 3 is_stmt 1 view .LVU115
 599 0002 D0F8E004 		ldr	r0, [r0, #1248]
 600              	.LVL49:
 601              		.loc 1 307 3 is_stmt 0 view .LVU116
 602 0006 FFF7FEFF 		bl	USBD_LL_DevDisconnected
 603              	.LVL50:
 308:USB_DEVICE/Target/usbd_conf.c **** }
 604              		.loc 1 308 1 view .LVU117
 605 000a 08BD     		pop	{r3, pc}
 606              		.cfi_endproc
 607              	.LFE240:
 609              		.section	.text.USBD_LL_Init,"ax",%progbits
 610              		.align	1
 611              		.global	USBD_LL_Init
 612              		.syntax unified
 613              		.thumb
 614              		.thumb_func
 616              	USBD_LL_Init:
 617              	.LVL51:
 618              	.LFB241:
 309:USB_DEVICE/Target/usbd_conf.c **** 
 310:USB_DEVICE/Target/usbd_conf.c **** /*******************************************************************************
 311:USB_DEVICE/Target/usbd_conf.c ****                        LL Driver Interface (USB Device Library --> PCD)
 312:USB_DEVICE/Target/usbd_conf.c **** *******************************************************************************/
 313:USB_DEVICE/Target/usbd_conf.c **** 
 314:USB_DEVICE/Target/usbd_conf.c **** /**
 315:USB_DEVICE/Target/usbd_conf.c ****   * @brief  Initializes the low level portion of the device driver.
 316:USB_DEVICE/Target/usbd_conf.c ****   * @param  pdev: Device handle
 317:USB_DEVICE/Target/usbd_conf.c ****   * @retval USBD status
 318:USB_DEVICE/Target/usbd_conf.c ****   */
 319:USB_DEVICE/Target/usbd_conf.c **** USBD_StatusTypeDef USBD_LL_Init(USBD_HandleTypeDef *pdev)
 320:USB_DEVICE/Target/usbd_conf.c **** {
 619              		.loc 1 320 1 is_stmt 1 view -0
 620              		.cfi_startproc
 621              		@ args = 0, pretend = 0, frame = 0
 622              		@ frame_needed = 0, uses_anonymous_args = 0
 321:USB_DEVICE/Target/usbd_conf.c ****   /* Init USB Ip. */
 322:USB_DEVICE/Target/usbd_conf.c ****   if (pdev->id == DEVICE_FS) {
 623              		.loc 1 322 3 view .LVU119
 624              		.loc 1 322 11 is_stmt 0 view .LVU120
 625 0000 0278     		ldrb	r2, [r0]	@ zero_extendqisi2
 626              		.loc 1 322 6 view .LVU121
 627 0002 0AB1     		cbz	r2, .L47
 323:USB_DEVICE/Target/usbd_conf.c ****   /* Link the driver to the stack. */
 324:USB_DEVICE/Target/usbd_conf.c ****   hpcd_USB_OTG_FS.pData = pdev;
 325:USB_DEVICE/Target/usbd_conf.c ****   pdev->pData = &hpcd_USB_OTG_FS;
 326:USB_DEVICE/Target/usbd_conf.c **** 
 327:USB_DEVICE/Target/usbd_conf.c ****   hpcd_USB_OTG_FS.Instance = USB_OTG_FS;
 328:USB_DEVICE/Target/usbd_conf.c ****   hpcd_USB_OTG_FS.Init.dev_endpoints = 4;
 329:USB_DEVICE/Target/usbd_conf.c ****   hpcd_USB_OTG_FS.Init.speed = PCD_SPEED_FULL;
 330:USB_DEVICE/Target/usbd_conf.c ****   hpcd_USB_OTG_FS.Init.dma_enable = DISABLE;
 331:USB_DEVICE/Target/usbd_conf.c ****   hpcd_USB_OTG_FS.Init.phy_itface = PCD_PHY_EMBEDDED;
 332:USB_DEVICE/Target/usbd_conf.c ****   hpcd_USB_OTG_FS.Init.Sof_enable = DISABLE;
 333:USB_DEVICE/Target/usbd_conf.c ****   hpcd_USB_OTG_FS.Init.low_power_enable = DISABLE;
 334:USB_DEVICE/Target/usbd_conf.c ****   hpcd_USB_OTG_FS.Init.lpm_enable = DISABLE;
 335:USB_DEVICE/Target/usbd_conf.c ****   hpcd_USB_OTG_FS.Init.vbus_sensing_enable = DISABLE;
ARM GAS  C:\Users\oleku\AppData\Local\Temp\ccreWTWk.s 			page 18


 336:USB_DEVICE/Target/usbd_conf.c ****   hpcd_USB_OTG_FS.Init.use_dedicated_ep1 = DISABLE;
 337:USB_DEVICE/Target/usbd_conf.c ****   if (HAL_PCD_Init(&hpcd_USB_OTG_FS) != HAL_OK)
 338:USB_DEVICE/Target/usbd_conf.c ****   {
 339:USB_DEVICE/Target/usbd_conf.c ****     Error_Handler( );
 340:USB_DEVICE/Target/usbd_conf.c ****   }
 341:USB_DEVICE/Target/usbd_conf.c **** 
 342:USB_DEVICE/Target/usbd_conf.c **** #if (USE_HAL_PCD_REGISTER_CALLBACKS == 1U)
 343:USB_DEVICE/Target/usbd_conf.c ****   /* Register USB PCD CallBacks */
 344:USB_DEVICE/Target/usbd_conf.c ****   HAL_PCD_RegisterCallback(&hpcd_USB_OTG_FS, HAL_PCD_SOF_CB_ID, PCD_SOFCallback);
 345:USB_DEVICE/Target/usbd_conf.c ****   HAL_PCD_RegisterCallback(&hpcd_USB_OTG_FS, HAL_PCD_SETUPSTAGE_CB_ID, PCD_SetupStageCallback);
 346:USB_DEVICE/Target/usbd_conf.c ****   HAL_PCD_RegisterCallback(&hpcd_USB_OTG_FS, HAL_PCD_RESET_CB_ID, PCD_ResetCallback);
 347:USB_DEVICE/Target/usbd_conf.c ****   HAL_PCD_RegisterCallback(&hpcd_USB_OTG_FS, HAL_PCD_SUSPEND_CB_ID, PCD_SuspendCallback);
 348:USB_DEVICE/Target/usbd_conf.c ****   HAL_PCD_RegisterCallback(&hpcd_USB_OTG_FS, HAL_PCD_RESUME_CB_ID, PCD_ResumeCallback);
 349:USB_DEVICE/Target/usbd_conf.c ****   HAL_PCD_RegisterCallback(&hpcd_USB_OTG_FS, HAL_PCD_CONNECT_CB_ID, PCD_ConnectCallback);
 350:USB_DEVICE/Target/usbd_conf.c ****   HAL_PCD_RegisterCallback(&hpcd_USB_OTG_FS, HAL_PCD_DISCONNECT_CB_ID, PCD_DisconnectCallback);
 351:USB_DEVICE/Target/usbd_conf.c **** 
 352:USB_DEVICE/Target/usbd_conf.c ****   HAL_PCD_RegisterDataOutStageCallback(&hpcd_USB_OTG_FS, PCD_DataOutStageCallback);
 353:USB_DEVICE/Target/usbd_conf.c ****   HAL_PCD_RegisterDataInStageCallback(&hpcd_USB_OTG_FS, PCD_DataInStageCallback);
 354:USB_DEVICE/Target/usbd_conf.c ****   HAL_PCD_RegisterIsoOutIncpltCallback(&hpcd_USB_OTG_FS, PCD_ISOOUTIncompleteCallback);
 355:USB_DEVICE/Target/usbd_conf.c ****   HAL_PCD_RegisterIsoInIncpltCallback(&hpcd_USB_OTG_FS, PCD_ISOINIncompleteCallback);
 356:USB_DEVICE/Target/usbd_conf.c **** #endif /* USE_HAL_PCD_REGISTER_CALLBACKS */
 357:USB_DEVICE/Target/usbd_conf.c ****   HAL_PCDEx_SetRxFiFo(&hpcd_USB_OTG_FS, 0x80);
 358:USB_DEVICE/Target/usbd_conf.c ****   HAL_PCDEx_SetTxFiFo(&hpcd_USB_OTG_FS, 0, 0x40);
 359:USB_DEVICE/Target/usbd_conf.c ****   HAL_PCDEx_SetTxFiFo(&hpcd_USB_OTG_FS, 1, 0x80);
 360:USB_DEVICE/Target/usbd_conf.c ****   }
 361:USB_DEVICE/Target/usbd_conf.c ****   return USBD_OK;
 628              		.loc 1 361 3 is_stmt 1 view .LVU122
 362:USB_DEVICE/Target/usbd_conf.c **** }
 629              		.loc 1 362 1 is_stmt 0 view .LVU123
 630 0004 0020     		movs	r0, #0
 631              	.LVL52:
 632              		.loc 1 362 1 view .LVU124
 633 0006 7047     		bx	lr
 634              	.LVL53:
 635              	.L47:
 320:USB_DEVICE/Target/usbd_conf.c ****   /* Init USB Ip. */
 636              		.loc 1 320 1 view .LVU125
 637 0008 10B5     		push	{r4, lr}
 638              	.LCFI16:
 639              		.cfi_def_cfa_offset 8
 640              		.cfi_offset 4, -8
 641              		.cfi_offset 14, -4
 642 000a 0346     		mov	r3, r0
 324:USB_DEVICE/Target/usbd_conf.c ****   pdev->pData = &hpcd_USB_OTG_FS;
 643              		.loc 1 324 3 is_stmt 1 view .LVU126
 324:USB_DEVICE/Target/usbd_conf.c ****   pdev->pData = &hpcd_USB_OTG_FS;
 644              		.loc 1 324 25 is_stmt 0 view .LVU127
 645 000c 1548     		ldr	r0, .L49
 646              	.LVL54:
 324:USB_DEVICE/Target/usbd_conf.c ****   pdev->pData = &hpcd_USB_OTG_FS;
 647              		.loc 1 324 25 view .LVU128
 648 000e C0F8E034 		str	r3, [r0, #1248]
 325:USB_DEVICE/Target/usbd_conf.c **** 
 649              		.loc 1 325 3 is_stmt 1 view .LVU129
 325:USB_DEVICE/Target/usbd_conf.c **** 
 650              		.loc 1 325 15 is_stmt 0 view .LVU130
 651 0012 C3F8C802 		str	r0, [r3, #712]
ARM GAS  C:\Users\oleku\AppData\Local\Temp\ccreWTWk.s 			page 19


 327:USB_DEVICE/Target/usbd_conf.c ****   hpcd_USB_OTG_FS.Init.dev_endpoints = 4;
 652              		.loc 1 327 3 is_stmt 1 view .LVU131
 327:USB_DEVICE/Target/usbd_conf.c ****   hpcd_USB_OTG_FS.Init.dev_endpoints = 4;
 653              		.loc 1 327 28 is_stmt 0 view .LVU132
 654 0016 4FF0A043 		mov	r3, #1342177280
 655              	.LVL55:
 327:USB_DEVICE/Target/usbd_conf.c ****   hpcd_USB_OTG_FS.Init.dev_endpoints = 4;
 656              		.loc 1 327 28 view .LVU133
 657 001a 0360     		str	r3, [r0]
 328:USB_DEVICE/Target/usbd_conf.c ****   hpcd_USB_OTG_FS.Init.speed = PCD_SPEED_FULL;
 658              		.loc 1 328 3 is_stmt 1 view .LVU134
 328:USB_DEVICE/Target/usbd_conf.c ****   hpcd_USB_OTG_FS.Init.speed = PCD_SPEED_FULL;
 659              		.loc 1 328 38 is_stmt 0 view .LVU135
 660 001c 0423     		movs	r3, #4
 661 001e 0371     		strb	r3, [r0, #4]
 329:USB_DEVICE/Target/usbd_conf.c ****   hpcd_USB_OTG_FS.Init.dma_enable = DISABLE;
 662              		.loc 1 329 3 is_stmt 1 view .LVU136
 329:USB_DEVICE/Target/usbd_conf.c ****   hpcd_USB_OTG_FS.Init.dma_enable = DISABLE;
 663              		.loc 1 329 30 is_stmt 0 view .LVU137
 664 0020 0222     		movs	r2, #2
 665 0022 C271     		strb	r2, [r0, #7]
 330:USB_DEVICE/Target/usbd_conf.c ****   hpcd_USB_OTG_FS.Init.phy_itface = PCD_PHY_EMBEDDED;
 666              		.loc 1 330 3 is_stmt 1 view .LVU138
 330:USB_DEVICE/Target/usbd_conf.c ****   hpcd_USB_OTG_FS.Init.phy_itface = PCD_PHY_EMBEDDED;
 667              		.loc 1 330 35 is_stmt 0 view .LVU139
 668 0024 0023     		movs	r3, #0
 669 0026 8371     		strb	r3, [r0, #6]
 331:USB_DEVICE/Target/usbd_conf.c ****   hpcd_USB_OTG_FS.Init.Sof_enable = DISABLE;
 670              		.loc 1 331 3 is_stmt 1 view .LVU140
 331:USB_DEVICE/Target/usbd_conf.c ****   hpcd_USB_OTG_FS.Init.Sof_enable = DISABLE;
 671              		.loc 1 331 35 is_stmt 0 view .LVU141
 672 0028 4272     		strb	r2, [r0, #9]
 332:USB_DEVICE/Target/usbd_conf.c ****   hpcd_USB_OTG_FS.Init.low_power_enable = DISABLE;
 673              		.loc 1 332 3 is_stmt 1 view .LVU142
 332:USB_DEVICE/Target/usbd_conf.c ****   hpcd_USB_OTG_FS.Init.low_power_enable = DISABLE;
 674              		.loc 1 332 35 is_stmt 0 view .LVU143
 675 002a 8372     		strb	r3, [r0, #10]
 333:USB_DEVICE/Target/usbd_conf.c ****   hpcd_USB_OTG_FS.Init.lpm_enable = DISABLE;
 676              		.loc 1 333 3 is_stmt 1 view .LVU144
 333:USB_DEVICE/Target/usbd_conf.c ****   hpcd_USB_OTG_FS.Init.lpm_enable = DISABLE;
 677              		.loc 1 333 41 is_stmt 0 view .LVU145
 678 002c C372     		strb	r3, [r0, #11]
 334:USB_DEVICE/Target/usbd_conf.c ****   hpcd_USB_OTG_FS.Init.vbus_sensing_enable = DISABLE;
 679              		.loc 1 334 3 is_stmt 1 view .LVU146
 334:USB_DEVICE/Target/usbd_conf.c ****   hpcd_USB_OTG_FS.Init.vbus_sensing_enable = DISABLE;
 680              		.loc 1 334 35 is_stmt 0 view .LVU147
 681 002e 0373     		strb	r3, [r0, #12]
 335:USB_DEVICE/Target/usbd_conf.c ****   hpcd_USB_OTG_FS.Init.use_dedicated_ep1 = DISABLE;
 682              		.loc 1 335 3 is_stmt 1 view .LVU148
 335:USB_DEVICE/Target/usbd_conf.c ****   hpcd_USB_OTG_FS.Init.use_dedicated_ep1 = DISABLE;
 683              		.loc 1 335 44 is_stmt 0 view .LVU149
 684 0030 8373     		strb	r3, [r0, #14]
 336:USB_DEVICE/Target/usbd_conf.c ****   if (HAL_PCD_Init(&hpcd_USB_OTG_FS) != HAL_OK)
 685              		.loc 1 336 3 is_stmt 1 view .LVU150
 336:USB_DEVICE/Target/usbd_conf.c ****   if (HAL_PCD_Init(&hpcd_USB_OTG_FS) != HAL_OK)
 686              		.loc 1 336 42 is_stmt 0 view .LVU151
 687 0032 C373     		strb	r3, [r0, #15]
ARM GAS  C:\Users\oleku\AppData\Local\Temp\ccreWTWk.s 			page 20


 337:USB_DEVICE/Target/usbd_conf.c ****   {
 688              		.loc 1 337 3 is_stmt 1 view .LVU152
 337:USB_DEVICE/Target/usbd_conf.c ****   {
 689              		.loc 1 337 7 is_stmt 0 view .LVU153
 690 0034 FFF7FEFF 		bl	HAL_PCD_Init
 691              	.LVL56:
 337:USB_DEVICE/Target/usbd_conf.c ****   {
 692              		.loc 1 337 6 discriminator 1 view .LVU154
 693 0038 80B9     		cbnz	r0, .L48
 694              	.L42:
 357:USB_DEVICE/Target/usbd_conf.c ****   HAL_PCDEx_SetTxFiFo(&hpcd_USB_OTG_FS, 0, 0x40);
 695              		.loc 1 357 3 is_stmt 1 view .LVU155
 696 003a 0A4C     		ldr	r4, .L49
 697 003c 8021     		movs	r1, #128
 698 003e 2046     		mov	r0, r4
 699 0040 FFF7FEFF 		bl	HAL_PCDEx_SetRxFiFo
 700              	.LVL57:
 358:USB_DEVICE/Target/usbd_conf.c ****   HAL_PCDEx_SetTxFiFo(&hpcd_USB_OTG_FS, 1, 0x80);
 701              		.loc 1 358 3 view .LVU156
 702 0044 4022     		movs	r2, #64
 703 0046 0021     		movs	r1, #0
 704 0048 2046     		mov	r0, r4
 705 004a FFF7FEFF 		bl	HAL_PCDEx_SetTxFiFo
 706              	.LVL58:
 359:USB_DEVICE/Target/usbd_conf.c ****   }
 707              		.loc 1 359 3 view .LVU157
 708 004e 8022     		movs	r2, #128
 709 0050 0121     		movs	r1, #1
 710 0052 2046     		mov	r0, r4
 711 0054 FFF7FEFF 		bl	HAL_PCDEx_SetTxFiFo
 712              	.LVL59:
 361:USB_DEVICE/Target/usbd_conf.c **** }
 713              		.loc 1 361 3 view .LVU158
 714              		.loc 1 362 1 is_stmt 0 view .LVU159
 715 0058 0020     		movs	r0, #0
 716 005a 10BD     		pop	{r4, pc}
 717              	.L48:
 339:USB_DEVICE/Target/usbd_conf.c ****   }
 718              		.loc 1 339 5 is_stmt 1 view .LVU160
 719 005c FFF7FEFF 		bl	Error_Handler
 720              	.LVL60:
 721 0060 EBE7     		b	.L42
 722              	.L50:
 723 0062 00BF     		.align	2
 724              	.L49:
 725 0064 00000000 		.word	hpcd_USB_OTG_FS
 726              		.cfi_endproc
 727              	.LFE241:
 729              		.section	.text.USBD_LL_IsStallEP,"ax",%progbits
 730              		.align	1
 731              		.global	USBD_LL_IsStallEP
 732              		.syntax unified
 733              		.thumb
 734              		.thumb_func
 736              	USBD_LL_IsStallEP:
 737              	.LVL61:
 738              	.LFB250:
ARM GAS  C:\Users\oleku\AppData\Local\Temp\ccreWTWk.s 			page 21


 363:USB_DEVICE/Target/usbd_conf.c **** 
 364:USB_DEVICE/Target/usbd_conf.c **** /**
 365:USB_DEVICE/Target/usbd_conf.c ****   * @brief  De-Initializes the low level portion of the device driver.
 366:USB_DEVICE/Target/usbd_conf.c ****   * @param  pdev: Device handle
 367:USB_DEVICE/Target/usbd_conf.c ****   * @retval USBD status
 368:USB_DEVICE/Target/usbd_conf.c ****   */
 369:USB_DEVICE/Target/usbd_conf.c **** USBD_StatusTypeDef USBD_LL_DeInit(USBD_HandleTypeDef *pdev)
 370:USB_DEVICE/Target/usbd_conf.c **** {
 371:USB_DEVICE/Target/usbd_conf.c ****   HAL_StatusTypeDef hal_status = HAL_OK;
 372:USB_DEVICE/Target/usbd_conf.c ****   USBD_StatusTypeDef usb_status = USBD_OK;
 373:USB_DEVICE/Target/usbd_conf.c **** 
 374:USB_DEVICE/Target/usbd_conf.c ****   hal_status = HAL_PCD_DeInit(pdev->pData);
 375:USB_DEVICE/Target/usbd_conf.c **** 
 376:USB_DEVICE/Target/usbd_conf.c ****   usb_status =  USBD_Get_USB_Status(hal_status);
 377:USB_DEVICE/Target/usbd_conf.c **** 
 378:USB_DEVICE/Target/usbd_conf.c ****   return usb_status;
 379:USB_DEVICE/Target/usbd_conf.c **** }
 380:USB_DEVICE/Target/usbd_conf.c **** 
 381:USB_DEVICE/Target/usbd_conf.c **** /**
 382:USB_DEVICE/Target/usbd_conf.c ****   * @brief  Starts the low level portion of the device driver.
 383:USB_DEVICE/Target/usbd_conf.c ****   * @param  pdev: Device handle
 384:USB_DEVICE/Target/usbd_conf.c ****   * @retval USBD status
 385:USB_DEVICE/Target/usbd_conf.c ****   */
 386:USB_DEVICE/Target/usbd_conf.c **** USBD_StatusTypeDef USBD_LL_Start(USBD_HandleTypeDef *pdev)
 387:USB_DEVICE/Target/usbd_conf.c **** {
 388:USB_DEVICE/Target/usbd_conf.c ****   HAL_StatusTypeDef hal_status = HAL_OK;
 389:USB_DEVICE/Target/usbd_conf.c ****   USBD_StatusTypeDef usb_status = USBD_OK;
 390:USB_DEVICE/Target/usbd_conf.c **** 
 391:USB_DEVICE/Target/usbd_conf.c ****   hal_status = HAL_PCD_Start(pdev->pData);
 392:USB_DEVICE/Target/usbd_conf.c **** 
 393:USB_DEVICE/Target/usbd_conf.c ****   usb_status =  USBD_Get_USB_Status(hal_status);
 394:USB_DEVICE/Target/usbd_conf.c **** 
 395:USB_DEVICE/Target/usbd_conf.c ****   return usb_status;
 396:USB_DEVICE/Target/usbd_conf.c **** }
 397:USB_DEVICE/Target/usbd_conf.c **** 
 398:USB_DEVICE/Target/usbd_conf.c **** /**
 399:USB_DEVICE/Target/usbd_conf.c ****   * @brief  Stops the low level portion of the device driver.
 400:USB_DEVICE/Target/usbd_conf.c ****   * @param  pdev: Device handle
 401:USB_DEVICE/Target/usbd_conf.c ****   * @retval USBD status
 402:USB_DEVICE/Target/usbd_conf.c ****   */
 403:USB_DEVICE/Target/usbd_conf.c **** USBD_StatusTypeDef USBD_LL_Stop(USBD_HandleTypeDef *pdev)
 404:USB_DEVICE/Target/usbd_conf.c **** {
 405:USB_DEVICE/Target/usbd_conf.c ****   HAL_StatusTypeDef hal_status = HAL_OK;
 406:USB_DEVICE/Target/usbd_conf.c ****   USBD_StatusTypeDef usb_status = USBD_OK;
 407:USB_DEVICE/Target/usbd_conf.c **** 
 408:USB_DEVICE/Target/usbd_conf.c ****   hal_status = HAL_PCD_Stop(pdev->pData);
 409:USB_DEVICE/Target/usbd_conf.c **** 
 410:USB_DEVICE/Target/usbd_conf.c ****   usb_status =  USBD_Get_USB_Status(hal_status);
 411:USB_DEVICE/Target/usbd_conf.c **** 
 412:USB_DEVICE/Target/usbd_conf.c ****   return usb_status;
 413:USB_DEVICE/Target/usbd_conf.c **** }
 414:USB_DEVICE/Target/usbd_conf.c **** 
 415:USB_DEVICE/Target/usbd_conf.c **** /**
 416:USB_DEVICE/Target/usbd_conf.c ****   * @brief  Opens an endpoint of the low level driver.
 417:USB_DEVICE/Target/usbd_conf.c ****   * @param  pdev: Device handle
 418:USB_DEVICE/Target/usbd_conf.c ****   * @param  ep_addr: Endpoint number
 419:USB_DEVICE/Target/usbd_conf.c ****   * @param  ep_type: Endpoint type
ARM GAS  C:\Users\oleku\AppData\Local\Temp\ccreWTWk.s 			page 22


 420:USB_DEVICE/Target/usbd_conf.c ****   * @param  ep_mps: Endpoint max packet size
 421:USB_DEVICE/Target/usbd_conf.c ****   * @retval USBD status
 422:USB_DEVICE/Target/usbd_conf.c ****   */
 423:USB_DEVICE/Target/usbd_conf.c **** USBD_StatusTypeDef USBD_LL_OpenEP(USBD_HandleTypeDef *pdev, uint8_t ep_addr, uint8_t ep_type, uint1
 424:USB_DEVICE/Target/usbd_conf.c **** {
 425:USB_DEVICE/Target/usbd_conf.c ****   HAL_StatusTypeDef hal_status = HAL_OK;
 426:USB_DEVICE/Target/usbd_conf.c ****   USBD_StatusTypeDef usb_status = USBD_OK;
 427:USB_DEVICE/Target/usbd_conf.c **** 
 428:USB_DEVICE/Target/usbd_conf.c ****   hal_status = HAL_PCD_EP_Open(pdev->pData, ep_addr, ep_mps, ep_type);
 429:USB_DEVICE/Target/usbd_conf.c **** 
 430:USB_DEVICE/Target/usbd_conf.c ****   usb_status =  USBD_Get_USB_Status(hal_status);
 431:USB_DEVICE/Target/usbd_conf.c **** 
 432:USB_DEVICE/Target/usbd_conf.c ****   return usb_status;
 433:USB_DEVICE/Target/usbd_conf.c **** }
 434:USB_DEVICE/Target/usbd_conf.c **** 
 435:USB_DEVICE/Target/usbd_conf.c **** /**
 436:USB_DEVICE/Target/usbd_conf.c ****   * @brief  Closes an endpoint of the low level driver.
 437:USB_DEVICE/Target/usbd_conf.c ****   * @param  pdev: Device handle
 438:USB_DEVICE/Target/usbd_conf.c ****   * @param  ep_addr: Endpoint number
 439:USB_DEVICE/Target/usbd_conf.c ****   * @retval USBD status
 440:USB_DEVICE/Target/usbd_conf.c ****   */
 441:USB_DEVICE/Target/usbd_conf.c **** USBD_StatusTypeDef USBD_LL_CloseEP(USBD_HandleTypeDef *pdev, uint8_t ep_addr)
 442:USB_DEVICE/Target/usbd_conf.c **** {
 443:USB_DEVICE/Target/usbd_conf.c ****   HAL_StatusTypeDef hal_status = HAL_OK;
 444:USB_DEVICE/Target/usbd_conf.c ****   USBD_StatusTypeDef usb_status = USBD_OK;
 445:USB_DEVICE/Target/usbd_conf.c **** 
 446:USB_DEVICE/Target/usbd_conf.c ****   hal_status = HAL_PCD_EP_Close(pdev->pData, ep_addr);
 447:USB_DEVICE/Target/usbd_conf.c **** 
 448:USB_DEVICE/Target/usbd_conf.c ****   usb_status =  USBD_Get_USB_Status(hal_status);
 449:USB_DEVICE/Target/usbd_conf.c **** 
 450:USB_DEVICE/Target/usbd_conf.c ****   return usb_status;
 451:USB_DEVICE/Target/usbd_conf.c **** }
 452:USB_DEVICE/Target/usbd_conf.c **** 
 453:USB_DEVICE/Target/usbd_conf.c **** /**
 454:USB_DEVICE/Target/usbd_conf.c ****   * @brief  Flushes an endpoint of the Low Level Driver.
 455:USB_DEVICE/Target/usbd_conf.c ****   * @param  pdev: Device handle
 456:USB_DEVICE/Target/usbd_conf.c ****   * @param  ep_addr: Endpoint number
 457:USB_DEVICE/Target/usbd_conf.c ****   * @retval USBD status
 458:USB_DEVICE/Target/usbd_conf.c ****   */
 459:USB_DEVICE/Target/usbd_conf.c **** USBD_StatusTypeDef USBD_LL_FlushEP(USBD_HandleTypeDef *pdev, uint8_t ep_addr)
 460:USB_DEVICE/Target/usbd_conf.c **** {
 461:USB_DEVICE/Target/usbd_conf.c ****   HAL_StatusTypeDef hal_status = HAL_OK;
 462:USB_DEVICE/Target/usbd_conf.c ****   USBD_StatusTypeDef usb_status = USBD_OK;
 463:USB_DEVICE/Target/usbd_conf.c **** 
 464:USB_DEVICE/Target/usbd_conf.c ****   hal_status = HAL_PCD_EP_Flush(pdev->pData, ep_addr);
 465:USB_DEVICE/Target/usbd_conf.c **** 
 466:USB_DEVICE/Target/usbd_conf.c ****   usb_status =  USBD_Get_USB_Status(hal_status);
 467:USB_DEVICE/Target/usbd_conf.c **** 
 468:USB_DEVICE/Target/usbd_conf.c ****   return usb_status;
 469:USB_DEVICE/Target/usbd_conf.c **** }
 470:USB_DEVICE/Target/usbd_conf.c **** 
 471:USB_DEVICE/Target/usbd_conf.c **** /**
 472:USB_DEVICE/Target/usbd_conf.c ****   * @brief  Sets a Stall condition on an endpoint of the Low Level Driver.
 473:USB_DEVICE/Target/usbd_conf.c ****   * @param  pdev: Device handle
 474:USB_DEVICE/Target/usbd_conf.c ****   * @param  ep_addr: Endpoint number
 475:USB_DEVICE/Target/usbd_conf.c ****   * @retval USBD status
 476:USB_DEVICE/Target/usbd_conf.c ****   */
ARM GAS  C:\Users\oleku\AppData\Local\Temp\ccreWTWk.s 			page 23


 477:USB_DEVICE/Target/usbd_conf.c **** USBD_StatusTypeDef USBD_LL_StallEP(USBD_HandleTypeDef *pdev, uint8_t ep_addr)
 478:USB_DEVICE/Target/usbd_conf.c **** {
 479:USB_DEVICE/Target/usbd_conf.c ****   HAL_StatusTypeDef hal_status = HAL_OK;
 480:USB_DEVICE/Target/usbd_conf.c ****   USBD_StatusTypeDef usb_status = USBD_OK;
 481:USB_DEVICE/Target/usbd_conf.c **** 
 482:USB_DEVICE/Target/usbd_conf.c ****   hal_status = HAL_PCD_EP_SetStall(pdev->pData, ep_addr);
 483:USB_DEVICE/Target/usbd_conf.c **** 
 484:USB_DEVICE/Target/usbd_conf.c ****   usb_status =  USBD_Get_USB_Status(hal_status);
 485:USB_DEVICE/Target/usbd_conf.c **** 
 486:USB_DEVICE/Target/usbd_conf.c ****   return usb_status;
 487:USB_DEVICE/Target/usbd_conf.c **** }
 488:USB_DEVICE/Target/usbd_conf.c **** 
 489:USB_DEVICE/Target/usbd_conf.c **** /**
 490:USB_DEVICE/Target/usbd_conf.c ****   * @brief  Clears a Stall condition on an endpoint of the Low Level Driver.
 491:USB_DEVICE/Target/usbd_conf.c ****   * @param  pdev: Device handle
 492:USB_DEVICE/Target/usbd_conf.c ****   * @param  ep_addr: Endpoint number
 493:USB_DEVICE/Target/usbd_conf.c ****   * @retval USBD status
 494:USB_DEVICE/Target/usbd_conf.c ****   */
 495:USB_DEVICE/Target/usbd_conf.c **** USBD_StatusTypeDef USBD_LL_ClearStallEP(USBD_HandleTypeDef *pdev, uint8_t ep_addr)
 496:USB_DEVICE/Target/usbd_conf.c **** {
 497:USB_DEVICE/Target/usbd_conf.c ****   HAL_StatusTypeDef hal_status = HAL_OK;
 498:USB_DEVICE/Target/usbd_conf.c ****   USBD_StatusTypeDef usb_status = USBD_OK;
 499:USB_DEVICE/Target/usbd_conf.c **** 
 500:USB_DEVICE/Target/usbd_conf.c ****   hal_status = HAL_PCD_EP_ClrStall(pdev->pData, ep_addr);
 501:USB_DEVICE/Target/usbd_conf.c **** 
 502:USB_DEVICE/Target/usbd_conf.c ****   usb_status =  USBD_Get_USB_Status(hal_status);
 503:USB_DEVICE/Target/usbd_conf.c **** 
 504:USB_DEVICE/Target/usbd_conf.c ****   return usb_status;
 505:USB_DEVICE/Target/usbd_conf.c **** }
 506:USB_DEVICE/Target/usbd_conf.c **** 
 507:USB_DEVICE/Target/usbd_conf.c **** /**
 508:USB_DEVICE/Target/usbd_conf.c ****   * @brief  Returns Stall condition.
 509:USB_DEVICE/Target/usbd_conf.c ****   * @param  pdev: Device handle
 510:USB_DEVICE/Target/usbd_conf.c ****   * @param  ep_addr: Endpoint number
 511:USB_DEVICE/Target/usbd_conf.c ****   * @retval Stall (1: Yes, 0: No)
 512:USB_DEVICE/Target/usbd_conf.c ****   */
 513:USB_DEVICE/Target/usbd_conf.c **** uint8_t USBD_LL_IsStallEP(USBD_HandleTypeDef *pdev, uint8_t ep_addr)
 514:USB_DEVICE/Target/usbd_conf.c **** {
 739              		.loc 1 514 1 view -0
 740              		.cfi_startproc
 741              		@ args = 0, pretend = 0, frame = 0
 742              		@ frame_needed = 0, uses_anonymous_args = 0
 743              		@ link register save eliminated.
 515:USB_DEVICE/Target/usbd_conf.c ****   PCD_HandleTypeDef *hpcd = (PCD_HandleTypeDef*) pdev->pData;
 744              		.loc 1 515 3 view .LVU162
 745              		.loc 1 515 22 is_stmt 0 view .LVU163
 746 0000 D0F8C832 		ldr	r3, [r0, #712]
 747              	.LVL62:
 516:USB_DEVICE/Target/usbd_conf.c **** 
 517:USB_DEVICE/Target/usbd_conf.c ****   if((ep_addr & 0x80) == 0x80)
 748              		.loc 1 517 3 is_stmt 1 view .LVU164
 749              		.loc 1 517 5 is_stmt 0 view .LVU165
 750 0004 11F0800F 		tst	r1, #128
 751 0008 08D1     		bne	.L54
 518:USB_DEVICE/Target/usbd_conf.c ****   {
 519:USB_DEVICE/Target/usbd_conf.c ****     return hpcd->IN_ep[ep_addr & 0x7F].is_stall;
 520:USB_DEVICE/Target/usbd_conf.c ****   }
ARM GAS  C:\Users\oleku\AppData\Local\Temp\ccreWTWk.s 			page 24


 521:USB_DEVICE/Target/usbd_conf.c ****   else
 522:USB_DEVICE/Target/usbd_conf.c ****   {
 523:USB_DEVICE/Target/usbd_conf.c ****     return hpcd->OUT_ep[ep_addr & 0x7F].is_stall;
 752              		.loc 1 523 5 is_stmt 1 view .LVU166
 753              		.loc 1 523 33 is_stmt 0 view .LVU167
 754 000a 01F07F01 		and	r1, r1, #127
 755              	.LVL63:
 756              		.loc 1 523 40 view .LVU168
 757 000e 01EBC101 		add	r1, r1, r1, lsl #3
 758 0012 03EB8103 		add	r3, r3, r1, lsl #2
 759              	.LVL64:
 760              		.loc 1 523 40 view .LVU169
 761 0016 93F85602 		ldrb	r0, [r3, #598]	@ zero_extendqisi2
 762              	.LVL65:
 524:USB_DEVICE/Target/usbd_conf.c ****   }
 525:USB_DEVICE/Target/usbd_conf.c **** }
 763              		.loc 1 525 1 view .LVU170
 764 001a 7047     		bx	lr
 765              	.LVL66:
 766              	.L54:
 519:USB_DEVICE/Target/usbd_conf.c ****   }
 767              		.loc 1 519 5 is_stmt 1 view .LVU171
 519:USB_DEVICE/Target/usbd_conf.c ****   }
 768              		.loc 1 519 32 is_stmt 0 view .LVU172
 769 001c 01F07F01 		and	r1, r1, #127
 770              	.LVL67:
 519:USB_DEVICE/Target/usbd_conf.c ****   }
 771              		.loc 1 519 39 view .LVU173
 772 0020 01EBC101 		add	r1, r1, r1, lsl #3
 773 0024 03EB8103 		add	r3, r3, r1, lsl #2
 774              	.LVL68:
 519:USB_DEVICE/Target/usbd_conf.c ****   }
 775              		.loc 1 519 39 view .LVU174
 776 0028 987D     		ldrb	r0, [r3, #22]	@ zero_extendqisi2
 777              	.LVL69:
 519:USB_DEVICE/Target/usbd_conf.c ****   }
 778              		.loc 1 519 39 view .LVU175
 779 002a 7047     		bx	lr
 780              		.cfi_endproc
 781              	.LFE250:
 783              		.section	.text.USBD_LL_GetRxDataSize,"ax",%progbits
 784              		.align	1
 785              		.global	USBD_LL_GetRxDataSize
 786              		.syntax unified
 787              		.thumb
 788              		.thumb_func
 790              	USBD_LL_GetRxDataSize:
 791              	.LVL70:
 792              	.LFB254:
 526:USB_DEVICE/Target/usbd_conf.c **** 
 527:USB_DEVICE/Target/usbd_conf.c **** /**
 528:USB_DEVICE/Target/usbd_conf.c ****   * @brief  Assigns a USB address to the device.
 529:USB_DEVICE/Target/usbd_conf.c ****   * @param  pdev: Device handle
 530:USB_DEVICE/Target/usbd_conf.c ****   * @param  dev_addr: Device address
 531:USB_DEVICE/Target/usbd_conf.c ****   * @retval USBD status
 532:USB_DEVICE/Target/usbd_conf.c ****   */
 533:USB_DEVICE/Target/usbd_conf.c **** USBD_StatusTypeDef USBD_LL_SetUSBAddress(USBD_HandleTypeDef *pdev, uint8_t dev_addr)
ARM GAS  C:\Users\oleku\AppData\Local\Temp\ccreWTWk.s 			page 25


 534:USB_DEVICE/Target/usbd_conf.c **** {
 535:USB_DEVICE/Target/usbd_conf.c ****   HAL_StatusTypeDef hal_status = HAL_OK;
 536:USB_DEVICE/Target/usbd_conf.c ****   USBD_StatusTypeDef usb_status = USBD_OK;
 537:USB_DEVICE/Target/usbd_conf.c **** 
 538:USB_DEVICE/Target/usbd_conf.c ****   hal_status = HAL_PCD_SetAddress(pdev->pData, dev_addr);
 539:USB_DEVICE/Target/usbd_conf.c **** 
 540:USB_DEVICE/Target/usbd_conf.c ****   usb_status =  USBD_Get_USB_Status(hal_status);
 541:USB_DEVICE/Target/usbd_conf.c **** 
 542:USB_DEVICE/Target/usbd_conf.c ****   return usb_status;
 543:USB_DEVICE/Target/usbd_conf.c **** }
 544:USB_DEVICE/Target/usbd_conf.c **** 
 545:USB_DEVICE/Target/usbd_conf.c **** /**
 546:USB_DEVICE/Target/usbd_conf.c ****   * @brief  Transmits data over an endpoint.
 547:USB_DEVICE/Target/usbd_conf.c ****   * @param  pdev: Device handle
 548:USB_DEVICE/Target/usbd_conf.c ****   * @param  ep_addr: Endpoint number
 549:USB_DEVICE/Target/usbd_conf.c ****   * @param  pbuf: Pointer to data to be sent
 550:USB_DEVICE/Target/usbd_conf.c ****   * @param  size: Data size
 551:USB_DEVICE/Target/usbd_conf.c ****   * @retval USBD status
 552:USB_DEVICE/Target/usbd_conf.c ****   */
 553:USB_DEVICE/Target/usbd_conf.c **** USBD_StatusTypeDef USBD_LL_Transmit(USBD_HandleTypeDef *pdev, uint8_t ep_addr, uint8_t *pbuf, uint3
 554:USB_DEVICE/Target/usbd_conf.c **** {
 555:USB_DEVICE/Target/usbd_conf.c ****   HAL_StatusTypeDef hal_status = HAL_OK;
 556:USB_DEVICE/Target/usbd_conf.c ****   USBD_StatusTypeDef usb_status = USBD_OK;
 557:USB_DEVICE/Target/usbd_conf.c **** 
 558:USB_DEVICE/Target/usbd_conf.c ****   hal_status = HAL_PCD_EP_Transmit(pdev->pData, ep_addr, pbuf, size);
 559:USB_DEVICE/Target/usbd_conf.c **** 
 560:USB_DEVICE/Target/usbd_conf.c ****   usb_status =  USBD_Get_USB_Status(hal_status);
 561:USB_DEVICE/Target/usbd_conf.c **** 
 562:USB_DEVICE/Target/usbd_conf.c ****   return usb_status;
 563:USB_DEVICE/Target/usbd_conf.c **** }
 564:USB_DEVICE/Target/usbd_conf.c **** 
 565:USB_DEVICE/Target/usbd_conf.c **** /**
 566:USB_DEVICE/Target/usbd_conf.c ****   * @brief  Prepares an endpoint for reception.
 567:USB_DEVICE/Target/usbd_conf.c ****   * @param  pdev: Device handle
 568:USB_DEVICE/Target/usbd_conf.c ****   * @param  ep_addr: Endpoint number
 569:USB_DEVICE/Target/usbd_conf.c ****   * @param  pbuf: Pointer to data to be received
 570:USB_DEVICE/Target/usbd_conf.c ****   * @param  size: Data size
 571:USB_DEVICE/Target/usbd_conf.c ****   * @retval USBD status
 572:USB_DEVICE/Target/usbd_conf.c ****   */
 573:USB_DEVICE/Target/usbd_conf.c **** USBD_StatusTypeDef USBD_LL_PrepareReceive(USBD_HandleTypeDef *pdev, uint8_t ep_addr, uint8_t *pbuf,
 574:USB_DEVICE/Target/usbd_conf.c **** {
 575:USB_DEVICE/Target/usbd_conf.c ****   HAL_StatusTypeDef hal_status = HAL_OK;
 576:USB_DEVICE/Target/usbd_conf.c ****   USBD_StatusTypeDef usb_status = USBD_OK;
 577:USB_DEVICE/Target/usbd_conf.c **** 
 578:USB_DEVICE/Target/usbd_conf.c ****   hal_status = HAL_PCD_EP_Receive(pdev->pData, ep_addr, pbuf, size);
 579:USB_DEVICE/Target/usbd_conf.c **** 
 580:USB_DEVICE/Target/usbd_conf.c ****   usb_status =  USBD_Get_USB_Status(hal_status);
 581:USB_DEVICE/Target/usbd_conf.c **** 
 582:USB_DEVICE/Target/usbd_conf.c ****   return usb_status;
 583:USB_DEVICE/Target/usbd_conf.c **** }
 584:USB_DEVICE/Target/usbd_conf.c **** 
 585:USB_DEVICE/Target/usbd_conf.c **** /**
 586:USB_DEVICE/Target/usbd_conf.c ****   * @brief  Returns the last transferred packet size.
 587:USB_DEVICE/Target/usbd_conf.c ****   * @param  pdev: Device handle
 588:USB_DEVICE/Target/usbd_conf.c ****   * @param  ep_addr: Endpoint number
 589:USB_DEVICE/Target/usbd_conf.c ****   * @retval Received Data Size
 590:USB_DEVICE/Target/usbd_conf.c ****   */
ARM GAS  C:\Users\oleku\AppData\Local\Temp\ccreWTWk.s 			page 26


 591:USB_DEVICE/Target/usbd_conf.c **** uint32_t USBD_LL_GetRxDataSize(USBD_HandleTypeDef *pdev, uint8_t ep_addr)
 592:USB_DEVICE/Target/usbd_conf.c **** {
 793              		.loc 1 592 1 is_stmt 1 view -0
 794              		.cfi_startproc
 795              		@ args = 0, pretend = 0, frame = 0
 796              		@ frame_needed = 0, uses_anonymous_args = 0
 797              		.loc 1 592 1 is_stmt 0 view .LVU177
 798 0000 08B5     		push	{r3, lr}
 799              	.LCFI17:
 800              		.cfi_def_cfa_offset 8
 801              		.cfi_offset 3, -8
 802              		.cfi_offset 14, -4
 593:USB_DEVICE/Target/usbd_conf.c ****   return HAL_PCD_EP_GetRxCount((PCD_HandleTypeDef*) pdev->pData, ep_addr);
 803              		.loc 1 593 3 is_stmt 1 view .LVU178
 804              		.loc 1 593 10 is_stmt 0 view .LVU179
 805 0002 D0F8C802 		ldr	r0, [r0, #712]
 806              	.LVL71:
 807              		.loc 1 593 10 view .LVU180
 808 0006 FFF7FEFF 		bl	HAL_PCD_EP_GetRxCount
 809              	.LVL72:
 594:USB_DEVICE/Target/usbd_conf.c **** }
 810              		.loc 1 594 1 view .LVU181
 811 000a 08BD     		pop	{r3, pc}
 812              		.cfi_endproc
 813              	.LFE254:
 815              		.section	.text.USBD_static_malloc,"ax",%progbits
 816              		.align	1
 817              		.global	USBD_static_malloc
 818              		.syntax unified
 819              		.thumb
 820              		.thumb_func
 822              	USBD_static_malloc:
 823              	.LVL73:
 824              	.LFB255:
 595:USB_DEVICE/Target/usbd_conf.c **** 
 596:USB_DEVICE/Target/usbd_conf.c **** #ifdef USBD_HS_TESTMODE_ENABLE
 597:USB_DEVICE/Target/usbd_conf.c **** /**
 598:USB_DEVICE/Target/usbd_conf.c ****   * @brief  Set High speed Test mode.
 599:USB_DEVICE/Target/usbd_conf.c ****   * @param  pdev: Device handle
 600:USB_DEVICE/Target/usbd_conf.c ****   * @param  testmode: test mode
 601:USB_DEVICE/Target/usbd_conf.c ****   * @retval USBD Status
 602:USB_DEVICE/Target/usbd_conf.c ****   */
 603:USB_DEVICE/Target/usbd_conf.c **** USBD_StatusTypeDef USBD_LL_SetTestMode(USBD_HandleTypeDef *pdev, uint8_t testmode)
 604:USB_DEVICE/Target/usbd_conf.c **** {
 605:USB_DEVICE/Target/usbd_conf.c ****   UNUSED(pdev);
 606:USB_DEVICE/Target/usbd_conf.c ****   UNUSED(testmode);
 607:USB_DEVICE/Target/usbd_conf.c **** 
 608:USB_DEVICE/Target/usbd_conf.c ****   return USBD_OK;
 609:USB_DEVICE/Target/usbd_conf.c **** }
 610:USB_DEVICE/Target/usbd_conf.c **** #endif /* USBD_HS_TESTMODE_ENABLE */
 611:USB_DEVICE/Target/usbd_conf.c **** 
 612:USB_DEVICE/Target/usbd_conf.c **** /**
 613:USB_DEVICE/Target/usbd_conf.c ****   * @brief  Static single allocation.
 614:USB_DEVICE/Target/usbd_conf.c ****   * @param  size: Size of allocated memory
 615:USB_DEVICE/Target/usbd_conf.c ****   * @retval None
 616:USB_DEVICE/Target/usbd_conf.c ****   */
 617:USB_DEVICE/Target/usbd_conf.c **** void *USBD_static_malloc(uint32_t size)
ARM GAS  C:\Users\oleku\AppData\Local\Temp\ccreWTWk.s 			page 27


 618:USB_DEVICE/Target/usbd_conf.c **** {
 825              		.loc 1 618 1 is_stmt 1 view -0
 826              		.cfi_startproc
 827              		@ args = 0, pretend = 0, frame = 0
 828              		@ frame_needed = 0, uses_anonymous_args = 0
 829              		@ link register save eliminated.
 619:USB_DEVICE/Target/usbd_conf.c ****   static uint32_t mem[(sizeof(USBD_CDC_HandleTypeDef)/4)+1];/* On 32-bit boundary */
 830              		.loc 1 619 3 view .LVU183
 620:USB_DEVICE/Target/usbd_conf.c ****   return mem;
 831              		.loc 1 620 3 view .LVU184
 621:USB_DEVICE/Target/usbd_conf.c **** }
 832              		.loc 1 621 1 is_stmt 0 view .LVU185
 833 0000 0048     		ldr	r0, .L58
 834              	.LVL74:
 835              		.loc 1 621 1 view .LVU186
 836 0002 7047     		bx	lr
 837              	.L59:
 838              		.align	2
 839              	.L58:
 840 0004 00000000 		.word	mem.0
 841              		.cfi_endproc
 842              	.LFE255:
 844              		.section	.text.USBD_static_free,"ax",%progbits
 845              		.align	1
 846              		.global	USBD_static_free
 847              		.syntax unified
 848              		.thumb
 849              		.thumb_func
 851              	USBD_static_free:
 852              	.LVL75:
 853              	.LFB256:
 622:USB_DEVICE/Target/usbd_conf.c **** 
 623:USB_DEVICE/Target/usbd_conf.c **** /**
 624:USB_DEVICE/Target/usbd_conf.c ****   * @brief  Dummy memory free
 625:USB_DEVICE/Target/usbd_conf.c ****   * @param  p: Pointer to allocated  memory address
 626:USB_DEVICE/Target/usbd_conf.c ****   * @retval None
 627:USB_DEVICE/Target/usbd_conf.c ****   */
 628:USB_DEVICE/Target/usbd_conf.c **** void USBD_static_free(void *p)
 629:USB_DEVICE/Target/usbd_conf.c **** {
 854              		.loc 1 629 1 is_stmt 1 view -0
 855              		.cfi_startproc
 856              		@ args = 0, pretend = 0, frame = 0
 857              		@ frame_needed = 0, uses_anonymous_args = 0
 858              		@ link register save eliminated.
 630:USB_DEVICE/Target/usbd_conf.c **** 
 631:USB_DEVICE/Target/usbd_conf.c **** }
 859              		.loc 1 631 1 view .LVU188
 860 0000 7047     		bx	lr
 861              		.cfi_endproc
 862              	.LFE256:
 864              		.section	.text.USBD_LL_Delay,"ax",%progbits
 865              		.align	1
 866              		.global	USBD_LL_Delay
 867              		.syntax unified
 868              		.thumb
 869              		.thumb_func
 871              	USBD_LL_Delay:
ARM GAS  C:\Users\oleku\AppData\Local\Temp\ccreWTWk.s 			page 28


 872              	.LVL76:
 873              	.LFB257:
 632:USB_DEVICE/Target/usbd_conf.c **** 
 633:USB_DEVICE/Target/usbd_conf.c **** /**
 634:USB_DEVICE/Target/usbd_conf.c ****   * @brief  Delays routine for the USB Device Library.
 635:USB_DEVICE/Target/usbd_conf.c ****   * @param  Delay: Delay in ms
 636:USB_DEVICE/Target/usbd_conf.c ****   * @retval None
 637:USB_DEVICE/Target/usbd_conf.c ****   */
 638:USB_DEVICE/Target/usbd_conf.c **** void USBD_LL_Delay(uint32_t Delay)
 639:USB_DEVICE/Target/usbd_conf.c **** {
 874              		.loc 1 639 1 view -0
 875              		.cfi_startproc
 876              		@ args = 0, pretend = 0, frame = 0
 877              		@ frame_needed = 0, uses_anonymous_args = 0
 878              		.loc 1 639 1 is_stmt 0 view .LVU190
 879 0000 08B5     		push	{r3, lr}
 880              	.LCFI18:
 881              		.cfi_def_cfa_offset 8
 882              		.cfi_offset 3, -8
 883              		.cfi_offset 14, -4
 640:USB_DEVICE/Target/usbd_conf.c ****   HAL_Delay(Delay);
 884              		.loc 1 640 3 is_stmt 1 view .LVU191
 885 0002 FFF7FEFF 		bl	HAL_Delay
 886              	.LVL77:
 641:USB_DEVICE/Target/usbd_conf.c **** }
 887              		.loc 1 641 1 is_stmt 0 view .LVU192
 888 0006 08BD     		pop	{r3, pc}
 889              		.cfi_endproc
 890              	.LFE257:
 892              		.section	.text.USBD_Get_USB_Status,"ax",%progbits
 893              		.align	1
 894              		.global	USBD_Get_USB_Status
 895              		.syntax unified
 896              		.thumb
 897              		.thumb_func
 899              	USBD_Get_USB_Status:
 900              	.LVL78:
 901              	.LFB258:
 642:USB_DEVICE/Target/usbd_conf.c **** 
 643:USB_DEVICE/Target/usbd_conf.c **** /**
 644:USB_DEVICE/Target/usbd_conf.c ****   * @brief  Returns the USB status depending on the HAL status:
 645:USB_DEVICE/Target/usbd_conf.c ****   * @param  hal_status: HAL status
 646:USB_DEVICE/Target/usbd_conf.c ****   * @retval USB status
 647:USB_DEVICE/Target/usbd_conf.c ****   */
 648:USB_DEVICE/Target/usbd_conf.c **** USBD_StatusTypeDef USBD_Get_USB_Status(HAL_StatusTypeDef hal_status)
 649:USB_DEVICE/Target/usbd_conf.c **** {
 902              		.loc 1 649 1 is_stmt 1 view -0
 903              		.cfi_startproc
 904              		@ args = 0, pretend = 0, frame = 0
 905              		@ frame_needed = 0, uses_anonymous_args = 0
 906              		@ link register save eliminated.
 650:USB_DEVICE/Target/usbd_conf.c ****   USBD_StatusTypeDef usb_status = USBD_OK;
 907              		.loc 1 650 3 view .LVU194
 651:USB_DEVICE/Target/usbd_conf.c **** 
 652:USB_DEVICE/Target/usbd_conf.c ****   switch (hal_status)
 908              		.loc 1 652 3 view .LVU195
 909 0000 0328     		cmp	r0, #3
ARM GAS  C:\Users\oleku\AppData\Local\Temp\ccreWTWk.s 			page 29


 910 0002 05D8     		bhi	.L69
 911 0004 DFE800F0 		tbb	[pc, r0]
 912              	.L66:
 913 0008 05       		.byte	(.L64-.L66)/2
 914 0009 04       		.byte	(.L69-.L66)/2
 915 000a 02       		.byte	(.L67-.L66)/2
 916 000b 05       		.byte	(.L64-.L66)/2
 917              		.p2align 1
 918              	.L67:
 653:USB_DEVICE/Target/usbd_conf.c ****   {
 654:USB_DEVICE/Target/usbd_conf.c ****     case HAL_OK :
 655:USB_DEVICE/Target/usbd_conf.c ****       usb_status = USBD_OK;
 656:USB_DEVICE/Target/usbd_conf.c ****     break;
 657:USB_DEVICE/Target/usbd_conf.c ****     case HAL_ERROR :
 658:USB_DEVICE/Target/usbd_conf.c ****       usb_status = USBD_FAIL;
 659:USB_DEVICE/Target/usbd_conf.c ****     break;
 660:USB_DEVICE/Target/usbd_conf.c ****     case HAL_BUSY :
 661:USB_DEVICE/Target/usbd_conf.c ****       usb_status = USBD_BUSY;
 919              		.loc 1 661 7 view .LVU196
 920              	.LVL79:
 662:USB_DEVICE/Target/usbd_conf.c ****     break;
 921              		.loc 1 662 5 view .LVU197
 661:USB_DEVICE/Target/usbd_conf.c ****     break;
 922              		.loc 1 661 18 is_stmt 0 view .LVU198
 923 000c 0120     		movs	r0, #1
 924              	.LVL80:
 925              		.loc 1 662 5 view .LVU199
 926 000e 7047     		bx	lr
 927              	.LVL81:
 928              	.L69:
 658:USB_DEVICE/Target/usbd_conf.c ****     break;
 929              		.loc 1 658 18 view .LVU200
 930 0010 0320     		movs	r0, #3
 931              	.LVL82:
 932              	.L64:
 663:USB_DEVICE/Target/usbd_conf.c ****     case HAL_TIMEOUT :
 664:USB_DEVICE/Target/usbd_conf.c ****       usb_status = USBD_FAIL;
 665:USB_DEVICE/Target/usbd_conf.c ****     break;
 666:USB_DEVICE/Target/usbd_conf.c ****     default :
 667:USB_DEVICE/Target/usbd_conf.c ****       usb_status = USBD_FAIL;
 668:USB_DEVICE/Target/usbd_conf.c ****     break;
 669:USB_DEVICE/Target/usbd_conf.c ****   }
 670:USB_DEVICE/Target/usbd_conf.c ****   return usb_status;
 933              		.loc 1 670 3 is_stmt 1 view .LVU201
 671:USB_DEVICE/Target/usbd_conf.c **** }
 934              		.loc 1 671 1 is_stmt 0 view .LVU202
 935 0012 7047     		bx	lr
 936              		.cfi_endproc
 937              	.LFE258:
 939              		.section	.text.USBD_LL_DeInit,"ax",%progbits
 940              		.align	1
 941              		.global	USBD_LL_DeInit
 942              		.syntax unified
 943              		.thumb
 944              		.thumb_func
 946              	USBD_LL_DeInit:
 947              	.LVL83:
ARM GAS  C:\Users\oleku\AppData\Local\Temp\ccreWTWk.s 			page 30


 948              	.LFB242:
 370:USB_DEVICE/Target/usbd_conf.c ****   HAL_StatusTypeDef hal_status = HAL_OK;
 949              		.loc 1 370 1 is_stmt 1 view -0
 950              		.cfi_startproc
 951              		@ args = 0, pretend = 0, frame = 0
 952              		@ frame_needed = 0, uses_anonymous_args = 0
 370:USB_DEVICE/Target/usbd_conf.c ****   HAL_StatusTypeDef hal_status = HAL_OK;
 953              		.loc 1 370 1 is_stmt 0 view .LVU204
 954 0000 08B5     		push	{r3, lr}
 955              	.LCFI19:
 956              		.cfi_def_cfa_offset 8
 957              		.cfi_offset 3, -8
 958              		.cfi_offset 14, -4
 371:USB_DEVICE/Target/usbd_conf.c ****   USBD_StatusTypeDef usb_status = USBD_OK;
 959              		.loc 1 371 3 is_stmt 1 view .LVU205
 960              	.LVL84:
 372:USB_DEVICE/Target/usbd_conf.c **** 
 961              		.loc 1 372 3 view .LVU206
 374:USB_DEVICE/Target/usbd_conf.c **** 
 962              		.loc 1 374 3 view .LVU207
 374:USB_DEVICE/Target/usbd_conf.c **** 
 963              		.loc 1 374 16 is_stmt 0 view .LVU208
 964 0002 D0F8C802 		ldr	r0, [r0, #712]
 965              	.LVL85:
 374:USB_DEVICE/Target/usbd_conf.c **** 
 966              		.loc 1 374 16 view .LVU209
 967 0006 FFF7FEFF 		bl	HAL_PCD_DeInit
 968              	.LVL86:
 376:USB_DEVICE/Target/usbd_conf.c **** 
 969              		.loc 1 376 3 is_stmt 1 view .LVU210
 376:USB_DEVICE/Target/usbd_conf.c **** 
 970              		.loc 1 376 17 is_stmt 0 view .LVU211
 971 000a FFF7FEFF 		bl	USBD_Get_USB_Status
 972              	.LVL87:
 378:USB_DEVICE/Target/usbd_conf.c **** }
 973              		.loc 1 378 3 is_stmt 1 view .LVU212
 379:USB_DEVICE/Target/usbd_conf.c **** 
 974              		.loc 1 379 1 is_stmt 0 view .LVU213
 975 000e 08BD     		pop	{r3, pc}
 976              		.cfi_endproc
 977              	.LFE242:
 979              		.section	.text.USBD_LL_Start,"ax",%progbits
 980              		.align	1
 981              		.global	USBD_LL_Start
 982              		.syntax unified
 983              		.thumb
 984              		.thumb_func
 986              	USBD_LL_Start:
 987              	.LVL88:
 988              	.LFB243:
 387:USB_DEVICE/Target/usbd_conf.c ****   HAL_StatusTypeDef hal_status = HAL_OK;
 989              		.loc 1 387 1 is_stmt 1 view -0
 990              		.cfi_startproc
 991              		@ args = 0, pretend = 0, frame = 0
 992              		@ frame_needed = 0, uses_anonymous_args = 0
 387:USB_DEVICE/Target/usbd_conf.c ****   HAL_StatusTypeDef hal_status = HAL_OK;
 993              		.loc 1 387 1 is_stmt 0 view .LVU215
ARM GAS  C:\Users\oleku\AppData\Local\Temp\ccreWTWk.s 			page 31


 994 0000 08B5     		push	{r3, lr}
 995              	.LCFI20:
 996              		.cfi_def_cfa_offset 8
 997              		.cfi_offset 3, -8
 998              		.cfi_offset 14, -4
 388:USB_DEVICE/Target/usbd_conf.c ****   USBD_StatusTypeDef usb_status = USBD_OK;
 999              		.loc 1 388 3 is_stmt 1 view .LVU216
 1000              	.LVL89:
 389:USB_DEVICE/Target/usbd_conf.c **** 
 1001              		.loc 1 389 3 view .LVU217
 391:USB_DEVICE/Target/usbd_conf.c **** 
 1002              		.loc 1 391 3 view .LVU218
 391:USB_DEVICE/Target/usbd_conf.c **** 
 1003              		.loc 1 391 16 is_stmt 0 view .LVU219
 1004 0002 D0F8C802 		ldr	r0, [r0, #712]
 1005              	.LVL90:
 391:USB_DEVICE/Target/usbd_conf.c **** 
 1006              		.loc 1 391 16 view .LVU220
 1007 0006 FFF7FEFF 		bl	HAL_PCD_Start
 1008              	.LVL91:
 393:USB_DEVICE/Target/usbd_conf.c **** 
 1009              		.loc 1 393 3 is_stmt 1 view .LVU221
 393:USB_DEVICE/Target/usbd_conf.c **** 
 1010              		.loc 1 393 17 is_stmt 0 view .LVU222
 1011 000a FFF7FEFF 		bl	USBD_Get_USB_Status
 1012              	.LVL92:
 395:USB_DEVICE/Target/usbd_conf.c **** }
 1013              		.loc 1 395 3 is_stmt 1 view .LVU223
 396:USB_DEVICE/Target/usbd_conf.c **** 
 1014              		.loc 1 396 1 is_stmt 0 view .LVU224
 1015 000e 08BD     		pop	{r3, pc}
 1016              		.cfi_endproc
 1017              	.LFE243:
 1019              		.section	.text.USBD_LL_Stop,"ax",%progbits
 1020              		.align	1
 1021              		.global	USBD_LL_Stop
 1022              		.syntax unified
 1023              		.thumb
 1024              		.thumb_func
 1026              	USBD_LL_Stop:
 1027              	.LVL93:
 1028              	.LFB244:
 404:USB_DEVICE/Target/usbd_conf.c ****   HAL_StatusTypeDef hal_status = HAL_OK;
 1029              		.loc 1 404 1 is_stmt 1 view -0
 1030              		.cfi_startproc
 1031              		@ args = 0, pretend = 0, frame = 0
 1032              		@ frame_needed = 0, uses_anonymous_args = 0
 404:USB_DEVICE/Target/usbd_conf.c ****   HAL_StatusTypeDef hal_status = HAL_OK;
 1033              		.loc 1 404 1 is_stmt 0 view .LVU226
 1034 0000 08B5     		push	{r3, lr}
 1035              	.LCFI21:
 1036              		.cfi_def_cfa_offset 8
 1037              		.cfi_offset 3, -8
 1038              		.cfi_offset 14, -4
 405:USB_DEVICE/Target/usbd_conf.c ****   USBD_StatusTypeDef usb_status = USBD_OK;
 1039              		.loc 1 405 3 is_stmt 1 view .LVU227
 1040              	.LVL94:
ARM GAS  C:\Users\oleku\AppData\Local\Temp\ccreWTWk.s 			page 32


 406:USB_DEVICE/Target/usbd_conf.c **** 
 1041              		.loc 1 406 3 view .LVU228
 408:USB_DEVICE/Target/usbd_conf.c **** 
 1042              		.loc 1 408 3 view .LVU229
 408:USB_DEVICE/Target/usbd_conf.c **** 
 1043              		.loc 1 408 16 is_stmt 0 view .LVU230
 1044 0002 D0F8C802 		ldr	r0, [r0, #712]
 1045              	.LVL95:
 408:USB_DEVICE/Target/usbd_conf.c **** 
 1046              		.loc 1 408 16 view .LVU231
 1047 0006 FFF7FEFF 		bl	HAL_PCD_Stop
 1048              	.LVL96:
 410:USB_DEVICE/Target/usbd_conf.c **** 
 1049              		.loc 1 410 3 is_stmt 1 view .LVU232
 410:USB_DEVICE/Target/usbd_conf.c **** 
 1050              		.loc 1 410 17 is_stmt 0 view .LVU233
 1051 000a FFF7FEFF 		bl	USBD_Get_USB_Status
 1052              	.LVL97:
 412:USB_DEVICE/Target/usbd_conf.c **** }
 1053              		.loc 1 412 3 is_stmt 1 view .LVU234
 413:USB_DEVICE/Target/usbd_conf.c **** 
 1054              		.loc 1 413 1 is_stmt 0 view .LVU235
 1055 000e 08BD     		pop	{r3, pc}
 1056              		.cfi_endproc
 1057              	.LFE244:
 1059              		.section	.text.USBD_LL_OpenEP,"ax",%progbits
 1060              		.align	1
 1061              		.global	USBD_LL_OpenEP
 1062              		.syntax unified
 1063              		.thumb
 1064              		.thumb_func
 1066              	USBD_LL_OpenEP:
 1067              	.LVL98:
 1068              	.LFB245:
 424:USB_DEVICE/Target/usbd_conf.c ****   HAL_StatusTypeDef hal_status = HAL_OK;
 1069              		.loc 1 424 1 is_stmt 1 view -0
 1070              		.cfi_startproc
 1071              		@ args = 0, pretend = 0, frame = 0
 1072              		@ frame_needed = 0, uses_anonymous_args = 0
 424:USB_DEVICE/Target/usbd_conf.c ****   HAL_StatusTypeDef hal_status = HAL_OK;
 1073              		.loc 1 424 1 is_stmt 0 view .LVU237
 1074 0000 08B5     		push	{r3, lr}
 1075              	.LCFI22:
 1076              		.cfi_def_cfa_offset 8
 1077              		.cfi_offset 3, -8
 1078              		.cfi_offset 14, -4
 1079 0002 9446     		mov	ip, r2
 1080 0004 1A46     		mov	r2, r3
 1081              	.LVL99:
 425:USB_DEVICE/Target/usbd_conf.c ****   USBD_StatusTypeDef usb_status = USBD_OK;
 1082              		.loc 1 425 3 is_stmt 1 view .LVU238
 426:USB_DEVICE/Target/usbd_conf.c **** 
 1083              		.loc 1 426 3 view .LVU239
 428:USB_DEVICE/Target/usbd_conf.c **** 
 1084              		.loc 1 428 3 view .LVU240
 428:USB_DEVICE/Target/usbd_conf.c **** 
 1085              		.loc 1 428 16 is_stmt 0 view .LVU241
ARM GAS  C:\Users\oleku\AppData\Local\Temp\ccreWTWk.s 			page 33


 1086 0006 6346     		mov	r3, ip
 1087              	.LVL100:
 428:USB_DEVICE/Target/usbd_conf.c **** 
 1088              		.loc 1 428 16 view .LVU242
 1089 0008 D0F8C802 		ldr	r0, [r0, #712]
 1090              	.LVL101:
 428:USB_DEVICE/Target/usbd_conf.c **** 
 1091              		.loc 1 428 16 view .LVU243
 1092 000c FFF7FEFF 		bl	HAL_PCD_EP_Open
 1093              	.LVL102:
 430:USB_DEVICE/Target/usbd_conf.c **** 
 1094              		.loc 1 430 3 is_stmt 1 view .LVU244
 430:USB_DEVICE/Target/usbd_conf.c **** 
 1095              		.loc 1 430 17 is_stmt 0 view .LVU245
 1096 0010 FFF7FEFF 		bl	USBD_Get_USB_Status
 1097              	.LVL103:
 432:USB_DEVICE/Target/usbd_conf.c **** }
 1098              		.loc 1 432 3 is_stmt 1 view .LVU246
 433:USB_DEVICE/Target/usbd_conf.c **** 
 1099              		.loc 1 433 1 is_stmt 0 view .LVU247
 1100 0014 08BD     		pop	{r3, pc}
 1101              		.cfi_endproc
 1102              	.LFE245:
 1104              		.section	.text.USBD_LL_CloseEP,"ax",%progbits
 1105              		.align	1
 1106              		.global	USBD_LL_CloseEP
 1107              		.syntax unified
 1108              		.thumb
 1109              		.thumb_func
 1111              	USBD_LL_CloseEP:
 1112              	.LVL104:
 1113              	.LFB246:
 442:USB_DEVICE/Target/usbd_conf.c ****   HAL_StatusTypeDef hal_status = HAL_OK;
 1114              		.loc 1 442 1 is_stmt 1 view -0
 1115              		.cfi_startproc
 1116              		@ args = 0, pretend = 0, frame = 0
 1117              		@ frame_needed = 0, uses_anonymous_args = 0
 442:USB_DEVICE/Target/usbd_conf.c ****   HAL_StatusTypeDef hal_status = HAL_OK;
 1118              		.loc 1 442 1 is_stmt 0 view .LVU249
 1119 0000 08B5     		push	{r3, lr}
 1120              	.LCFI23:
 1121              		.cfi_def_cfa_offset 8
 1122              		.cfi_offset 3, -8
 1123              		.cfi_offset 14, -4
 443:USB_DEVICE/Target/usbd_conf.c ****   USBD_StatusTypeDef usb_status = USBD_OK;
 1124              		.loc 1 443 3 is_stmt 1 view .LVU250
 1125              	.LVL105:
 444:USB_DEVICE/Target/usbd_conf.c **** 
 1126              		.loc 1 444 3 view .LVU251
 446:USB_DEVICE/Target/usbd_conf.c **** 
 1127              		.loc 1 446 3 view .LVU252
 446:USB_DEVICE/Target/usbd_conf.c **** 
 1128              		.loc 1 446 16 is_stmt 0 view .LVU253
 1129 0002 D0F8C802 		ldr	r0, [r0, #712]
 1130              	.LVL106:
 446:USB_DEVICE/Target/usbd_conf.c **** 
 1131              		.loc 1 446 16 view .LVU254
ARM GAS  C:\Users\oleku\AppData\Local\Temp\ccreWTWk.s 			page 34


 1132 0006 FFF7FEFF 		bl	HAL_PCD_EP_Close
 1133              	.LVL107:
 448:USB_DEVICE/Target/usbd_conf.c **** 
 1134              		.loc 1 448 3 is_stmt 1 view .LVU255
 448:USB_DEVICE/Target/usbd_conf.c **** 
 1135              		.loc 1 448 17 is_stmt 0 view .LVU256
 1136 000a FFF7FEFF 		bl	USBD_Get_USB_Status
 1137              	.LVL108:
 450:USB_DEVICE/Target/usbd_conf.c **** }
 1138              		.loc 1 450 3 is_stmt 1 view .LVU257
 451:USB_DEVICE/Target/usbd_conf.c **** 
 1139              		.loc 1 451 1 is_stmt 0 view .LVU258
 1140 000e 08BD     		pop	{r3, pc}
 1141              		.cfi_endproc
 1142              	.LFE246:
 1144              		.section	.text.USBD_LL_FlushEP,"ax",%progbits
 1145              		.align	1
 1146              		.global	USBD_LL_FlushEP
 1147              		.syntax unified
 1148              		.thumb
 1149              		.thumb_func
 1151              	USBD_LL_FlushEP:
 1152              	.LVL109:
 1153              	.LFB247:
 460:USB_DEVICE/Target/usbd_conf.c ****   HAL_StatusTypeDef hal_status = HAL_OK;
 1154              		.loc 1 460 1 is_stmt 1 view -0
 1155              		.cfi_startproc
 1156              		@ args = 0, pretend = 0, frame = 0
 1157              		@ frame_needed = 0, uses_anonymous_args = 0
 460:USB_DEVICE/Target/usbd_conf.c ****   HAL_StatusTypeDef hal_status = HAL_OK;
 1158              		.loc 1 460 1 is_stmt 0 view .LVU260
 1159 0000 08B5     		push	{r3, lr}
 1160              	.LCFI24:
 1161              		.cfi_def_cfa_offset 8
 1162              		.cfi_offset 3, -8
 1163              		.cfi_offset 14, -4
 461:USB_DEVICE/Target/usbd_conf.c ****   USBD_StatusTypeDef usb_status = USBD_OK;
 1164              		.loc 1 461 3 is_stmt 1 view .LVU261
 1165              	.LVL110:
 462:USB_DEVICE/Target/usbd_conf.c **** 
 1166              		.loc 1 462 3 view .LVU262
 464:USB_DEVICE/Target/usbd_conf.c **** 
 1167              		.loc 1 464 3 view .LVU263
 464:USB_DEVICE/Target/usbd_conf.c **** 
 1168              		.loc 1 464 16 is_stmt 0 view .LVU264
 1169 0002 D0F8C802 		ldr	r0, [r0, #712]
 1170              	.LVL111:
 464:USB_DEVICE/Target/usbd_conf.c **** 
 1171              		.loc 1 464 16 view .LVU265
 1172 0006 FFF7FEFF 		bl	HAL_PCD_EP_Flush
 1173              	.LVL112:
 466:USB_DEVICE/Target/usbd_conf.c **** 
 1174              		.loc 1 466 3 is_stmt 1 view .LVU266
 466:USB_DEVICE/Target/usbd_conf.c **** 
 1175              		.loc 1 466 17 is_stmt 0 view .LVU267
 1176 000a FFF7FEFF 		bl	USBD_Get_USB_Status
 1177              	.LVL113:
ARM GAS  C:\Users\oleku\AppData\Local\Temp\ccreWTWk.s 			page 35


 468:USB_DEVICE/Target/usbd_conf.c **** }
 1178              		.loc 1 468 3 is_stmt 1 view .LVU268
 469:USB_DEVICE/Target/usbd_conf.c **** 
 1179              		.loc 1 469 1 is_stmt 0 view .LVU269
 1180 000e 08BD     		pop	{r3, pc}
 1181              		.cfi_endproc
 1182              	.LFE247:
 1184              		.section	.text.USBD_LL_StallEP,"ax",%progbits
 1185              		.align	1
 1186              		.global	USBD_LL_StallEP
 1187              		.syntax unified
 1188              		.thumb
 1189              		.thumb_func
 1191              	USBD_LL_StallEP:
 1192              	.LVL114:
 1193              	.LFB248:
 478:USB_DEVICE/Target/usbd_conf.c ****   HAL_StatusTypeDef hal_status = HAL_OK;
 1194              		.loc 1 478 1 is_stmt 1 view -0
 1195              		.cfi_startproc
 1196              		@ args = 0, pretend = 0, frame = 0
 1197              		@ frame_needed = 0, uses_anonymous_args = 0
 478:USB_DEVICE/Target/usbd_conf.c ****   HAL_StatusTypeDef hal_status = HAL_OK;
 1198              		.loc 1 478 1 is_stmt 0 view .LVU271
 1199 0000 08B5     		push	{r3, lr}
 1200              	.LCFI25:
 1201              		.cfi_def_cfa_offset 8
 1202              		.cfi_offset 3, -8
 1203              		.cfi_offset 14, -4
 479:USB_DEVICE/Target/usbd_conf.c ****   USBD_StatusTypeDef usb_status = USBD_OK;
 1204              		.loc 1 479 3 is_stmt 1 view .LVU272
 1205              	.LVL115:
 480:USB_DEVICE/Target/usbd_conf.c **** 
 1206              		.loc 1 480 3 view .LVU273
 482:USB_DEVICE/Target/usbd_conf.c **** 
 1207              		.loc 1 482 3 view .LVU274
 482:USB_DEVICE/Target/usbd_conf.c **** 
 1208              		.loc 1 482 16 is_stmt 0 view .LVU275
 1209 0002 D0F8C802 		ldr	r0, [r0, #712]
 1210              	.LVL116:
 482:USB_DEVICE/Target/usbd_conf.c **** 
 1211              		.loc 1 482 16 view .LVU276
 1212 0006 FFF7FEFF 		bl	HAL_PCD_EP_SetStall
 1213              	.LVL117:
 484:USB_DEVICE/Target/usbd_conf.c **** 
 1214              		.loc 1 484 3 is_stmt 1 view .LVU277
 484:USB_DEVICE/Target/usbd_conf.c **** 
 1215              		.loc 1 484 17 is_stmt 0 view .LVU278
 1216 000a FFF7FEFF 		bl	USBD_Get_USB_Status
 1217              	.LVL118:
 486:USB_DEVICE/Target/usbd_conf.c **** }
 1218              		.loc 1 486 3 is_stmt 1 view .LVU279
 487:USB_DEVICE/Target/usbd_conf.c **** 
 1219              		.loc 1 487 1 is_stmt 0 view .LVU280
 1220 000e 08BD     		pop	{r3, pc}
 1221              		.cfi_endproc
 1222              	.LFE248:
 1224              		.section	.text.USBD_LL_ClearStallEP,"ax",%progbits
ARM GAS  C:\Users\oleku\AppData\Local\Temp\ccreWTWk.s 			page 36


 1225              		.align	1
 1226              		.global	USBD_LL_ClearStallEP
 1227              		.syntax unified
 1228              		.thumb
 1229              		.thumb_func
 1231              	USBD_LL_ClearStallEP:
 1232              	.LVL119:
 1233              	.LFB249:
 496:USB_DEVICE/Target/usbd_conf.c ****   HAL_StatusTypeDef hal_status = HAL_OK;
 1234              		.loc 1 496 1 is_stmt 1 view -0
 1235              		.cfi_startproc
 1236              		@ args = 0, pretend = 0, frame = 0
 1237              		@ frame_needed = 0, uses_anonymous_args = 0
 496:USB_DEVICE/Target/usbd_conf.c ****   HAL_StatusTypeDef hal_status = HAL_OK;
 1238              		.loc 1 496 1 is_stmt 0 view .LVU282
 1239 0000 08B5     		push	{r3, lr}
 1240              	.LCFI26:
 1241              		.cfi_def_cfa_offset 8
 1242              		.cfi_offset 3, -8
 1243              		.cfi_offset 14, -4
 497:USB_DEVICE/Target/usbd_conf.c ****   USBD_StatusTypeDef usb_status = USBD_OK;
 1244              		.loc 1 497 3 is_stmt 1 view .LVU283
 1245              	.LVL120:
 498:USB_DEVICE/Target/usbd_conf.c **** 
 1246              		.loc 1 498 3 view .LVU284
 500:USB_DEVICE/Target/usbd_conf.c **** 
 1247              		.loc 1 500 3 view .LVU285
 500:USB_DEVICE/Target/usbd_conf.c **** 
 1248              		.loc 1 500 16 is_stmt 0 view .LVU286
 1249 0002 D0F8C802 		ldr	r0, [r0, #712]
 1250              	.LVL121:
 500:USB_DEVICE/Target/usbd_conf.c **** 
 1251              		.loc 1 500 16 view .LVU287
 1252 0006 FFF7FEFF 		bl	HAL_PCD_EP_ClrStall
 1253              	.LVL122:
 502:USB_DEVICE/Target/usbd_conf.c **** 
 1254              		.loc 1 502 3 is_stmt 1 view .LVU288
 502:USB_DEVICE/Target/usbd_conf.c **** 
 1255              		.loc 1 502 17 is_stmt 0 view .LVU289
 1256 000a FFF7FEFF 		bl	USBD_Get_USB_Status
 1257              	.LVL123:
 504:USB_DEVICE/Target/usbd_conf.c **** }
 1258              		.loc 1 504 3 is_stmt 1 view .LVU290
 505:USB_DEVICE/Target/usbd_conf.c **** 
 1259              		.loc 1 505 1 is_stmt 0 view .LVU291
 1260 000e 08BD     		pop	{r3, pc}
 1261              		.cfi_endproc
 1262              	.LFE249:
 1264              		.section	.text.USBD_LL_SetUSBAddress,"ax",%progbits
 1265              		.align	1
 1266              		.global	USBD_LL_SetUSBAddress
 1267              		.syntax unified
 1268              		.thumb
 1269              		.thumb_func
 1271              	USBD_LL_SetUSBAddress:
 1272              	.LVL124:
 1273              	.LFB251:
ARM GAS  C:\Users\oleku\AppData\Local\Temp\ccreWTWk.s 			page 37


 534:USB_DEVICE/Target/usbd_conf.c ****   HAL_StatusTypeDef hal_status = HAL_OK;
 1274              		.loc 1 534 1 is_stmt 1 view -0
 1275              		.cfi_startproc
 1276              		@ args = 0, pretend = 0, frame = 0
 1277              		@ frame_needed = 0, uses_anonymous_args = 0
 534:USB_DEVICE/Target/usbd_conf.c ****   HAL_StatusTypeDef hal_status = HAL_OK;
 1278              		.loc 1 534 1 is_stmt 0 view .LVU293
 1279 0000 08B5     		push	{r3, lr}
 1280              	.LCFI27:
 1281              		.cfi_def_cfa_offset 8
 1282              		.cfi_offset 3, -8
 1283              		.cfi_offset 14, -4
 535:USB_DEVICE/Target/usbd_conf.c ****   USBD_StatusTypeDef usb_status = USBD_OK;
 1284              		.loc 1 535 3 is_stmt 1 view .LVU294
 1285              	.LVL125:
 536:USB_DEVICE/Target/usbd_conf.c **** 
 1286              		.loc 1 536 3 view .LVU295
 538:USB_DEVICE/Target/usbd_conf.c **** 
 1287              		.loc 1 538 3 view .LVU296
 538:USB_DEVICE/Target/usbd_conf.c **** 
 1288              		.loc 1 538 16 is_stmt 0 view .LVU297
 1289 0002 D0F8C802 		ldr	r0, [r0, #712]
 1290              	.LVL126:
 538:USB_DEVICE/Target/usbd_conf.c **** 
 1291              		.loc 1 538 16 view .LVU298
 1292 0006 FFF7FEFF 		bl	HAL_PCD_SetAddress
 1293              	.LVL127:
 540:USB_DEVICE/Target/usbd_conf.c **** 
 1294              		.loc 1 540 3 is_stmt 1 view .LVU299
 540:USB_DEVICE/Target/usbd_conf.c **** 
 1295              		.loc 1 540 17 is_stmt 0 view .LVU300
 1296 000a FFF7FEFF 		bl	USBD_Get_USB_Status
 1297              	.LVL128:
 542:USB_DEVICE/Target/usbd_conf.c **** }
 1298              		.loc 1 542 3 is_stmt 1 view .LVU301
 543:USB_DEVICE/Target/usbd_conf.c **** 
 1299              		.loc 1 543 1 is_stmt 0 view .LVU302
 1300 000e 08BD     		pop	{r3, pc}
 1301              		.cfi_endproc
 1302              	.LFE251:
 1304              		.section	.text.USBD_LL_Transmit,"ax",%progbits
 1305              		.align	1
 1306              		.global	USBD_LL_Transmit
 1307              		.syntax unified
 1308              		.thumb
 1309              		.thumb_func
 1311              	USBD_LL_Transmit:
 1312              	.LVL129:
 1313              	.LFB252:
 554:USB_DEVICE/Target/usbd_conf.c ****   HAL_StatusTypeDef hal_status = HAL_OK;
 1314              		.loc 1 554 1 is_stmt 1 view -0
 1315              		.cfi_startproc
 1316              		@ args = 0, pretend = 0, frame = 0
 1317              		@ frame_needed = 0, uses_anonymous_args = 0
 554:USB_DEVICE/Target/usbd_conf.c ****   HAL_StatusTypeDef hal_status = HAL_OK;
 1318              		.loc 1 554 1 is_stmt 0 view .LVU304
 1319 0000 08B5     		push	{r3, lr}
ARM GAS  C:\Users\oleku\AppData\Local\Temp\ccreWTWk.s 			page 38


 1320              	.LCFI28:
 1321              		.cfi_def_cfa_offset 8
 1322              		.cfi_offset 3, -8
 1323              		.cfi_offset 14, -4
 555:USB_DEVICE/Target/usbd_conf.c ****   USBD_StatusTypeDef usb_status = USBD_OK;
 1324              		.loc 1 555 3 is_stmt 1 view .LVU305
 1325              	.LVL130:
 556:USB_DEVICE/Target/usbd_conf.c **** 
 1326              		.loc 1 556 3 view .LVU306
 558:USB_DEVICE/Target/usbd_conf.c **** 
 1327              		.loc 1 558 3 view .LVU307
 558:USB_DEVICE/Target/usbd_conf.c **** 
 1328              		.loc 1 558 16 is_stmt 0 view .LVU308
 1329 0002 D0F8C802 		ldr	r0, [r0, #712]
 1330              	.LVL131:
 558:USB_DEVICE/Target/usbd_conf.c **** 
 1331              		.loc 1 558 16 view .LVU309
 1332 0006 FFF7FEFF 		bl	HAL_PCD_EP_Transmit
 1333              	.LVL132:
 560:USB_DEVICE/Target/usbd_conf.c **** 
 1334              		.loc 1 560 3 is_stmt 1 view .LVU310
 560:USB_DEVICE/Target/usbd_conf.c **** 
 1335              		.loc 1 560 17 is_stmt 0 view .LVU311
 1336 000a FFF7FEFF 		bl	USBD_Get_USB_Status
 1337              	.LVL133:
 562:USB_DEVICE/Target/usbd_conf.c **** }
 1338              		.loc 1 562 3 is_stmt 1 view .LVU312
 563:USB_DEVICE/Target/usbd_conf.c **** 
 1339              		.loc 1 563 1 is_stmt 0 view .LVU313
 1340 000e 08BD     		pop	{r3, pc}
 1341              		.cfi_endproc
 1342              	.LFE252:
 1344              		.section	.text.USBD_LL_PrepareReceive,"ax",%progbits
 1345              		.align	1
 1346              		.global	USBD_LL_PrepareReceive
 1347              		.syntax unified
 1348              		.thumb
 1349              		.thumb_func
 1351              	USBD_LL_PrepareReceive:
 1352              	.LVL134:
 1353              	.LFB253:
 574:USB_DEVICE/Target/usbd_conf.c ****   HAL_StatusTypeDef hal_status = HAL_OK;
 1354              		.loc 1 574 1 is_stmt 1 view -0
 1355              		.cfi_startproc
 1356              		@ args = 0, pretend = 0, frame = 0
 1357              		@ frame_needed = 0, uses_anonymous_args = 0
 574:USB_DEVICE/Target/usbd_conf.c ****   HAL_StatusTypeDef hal_status = HAL_OK;
 1358              		.loc 1 574 1 is_stmt 0 view .LVU315
 1359 0000 08B5     		push	{r3, lr}
 1360              	.LCFI29:
 1361              		.cfi_def_cfa_offset 8
 1362              		.cfi_offset 3, -8
 1363              		.cfi_offset 14, -4
 575:USB_DEVICE/Target/usbd_conf.c ****   USBD_StatusTypeDef usb_status = USBD_OK;
 1364              		.loc 1 575 3 is_stmt 1 view .LVU316
 1365              	.LVL135:
 576:USB_DEVICE/Target/usbd_conf.c **** 
ARM GAS  C:\Users\oleku\AppData\Local\Temp\ccreWTWk.s 			page 39


 1366              		.loc 1 576 3 view .LVU317
 578:USB_DEVICE/Target/usbd_conf.c **** 
 1367              		.loc 1 578 3 view .LVU318
 578:USB_DEVICE/Target/usbd_conf.c **** 
 1368              		.loc 1 578 16 is_stmt 0 view .LVU319
 1369 0002 D0F8C802 		ldr	r0, [r0, #712]
 1370              	.LVL136:
 578:USB_DEVICE/Target/usbd_conf.c **** 
 1371              		.loc 1 578 16 view .LVU320
 1372 0006 FFF7FEFF 		bl	HAL_PCD_EP_Receive
 1373              	.LVL137:
 580:USB_DEVICE/Target/usbd_conf.c **** 
 1374              		.loc 1 580 3 is_stmt 1 view .LVU321
 580:USB_DEVICE/Target/usbd_conf.c **** 
 1375              		.loc 1 580 17 is_stmt 0 view .LVU322
 1376 000a FFF7FEFF 		bl	USBD_Get_USB_Status
 1377              	.LVL138:
 582:USB_DEVICE/Target/usbd_conf.c **** }
 1378              		.loc 1 582 3 is_stmt 1 view .LVU323
 583:USB_DEVICE/Target/usbd_conf.c **** 
 1379              		.loc 1 583 1 is_stmt 0 view .LVU324
 1380 000e 08BD     		pop	{r3, pc}
 1381              		.cfi_endproc
 1382              	.LFE253:
 1384              		.section	.bss.mem.0,"aw",%nobits
 1385              		.align	2
 1388              	mem.0:
 1389 0000 00000000 		.space	544
 1389      00000000 
 1389      00000000 
 1389      00000000 
 1389      00000000 
 1390              		.global	hpcd_USB_OTG_FS
 1391              		.section	.bss.hpcd_USB_OTG_FS,"aw",%nobits
 1392              		.align	2
 1395              	hpcd_USB_OTG_FS:
 1396 0000 00000000 		.space	1252
 1396      00000000 
 1396      00000000 
 1396      00000000 
 1396      00000000 
 1397              		.text
 1398              	.Letext0:
 1399              		.file 2 "Drivers/CMSIS/Device/ST/STM32F4xx/Include/stm32f401xc.h"
 1400              		.file 3 "c:/Program Files/ARMtoolchain/arm-none-eabi/include/machine/_default_types.h"
 1401              		.file 4 "c:/Program Files/ARMtoolchain/arm-none-eabi/include/sys/_stdint.h"
 1402              		.file 5 "Drivers/CMSIS/Include/core_cm4.h"
 1403              		.file 6 "Drivers/CMSIS/Device/ST/STM32F4xx/Include/stm32f4xx.h"
 1404              		.file 7 "Drivers/STM32F4xx_HAL_Driver/Inc/stm32f4xx_hal_def.h"
 1405              		.file 8 "Drivers/STM32F4xx_HAL_Driver/Inc/stm32f4xx_hal_gpio.h"
 1406              		.file 9 "Drivers/STM32F4xx_HAL_Driver/Inc/stm32f4xx_ll_usb.h"
 1407              		.file 10 "Drivers/STM32F4xx_HAL_Driver/Inc/stm32f4xx_hal_pcd.h"
 1408              		.file 11 "Middlewares/ST/STM32_USB_Device_Library/Core/Inc/usbd_def.h"
 1409              		.file 12 "Drivers/STM32F4xx_HAL_Driver/Inc/stm32f4xx_hal_pcd_ex.h"
 1410              		.file 13 "Middlewares/ST/STM32_USB_Device_Library/Core/Inc/usbd_core.h"
 1411              		.file 14 "Drivers/STM32F4xx_HAL_Driver/Inc/stm32f4xx_hal.h"
 1412              		.file 15 "Drivers/STM32F4xx_HAL_Driver/Inc/stm32f4xx_hal_cortex.h"
ARM GAS  C:\Users\oleku\AppData\Local\Temp\ccreWTWk.s 			page 40


ARM GAS  C:\Users\oleku\AppData\Local\Temp\ccreWTWk.s 			page 41

